(i__main__
Classifier
p0
(dp1
S'classes'
p2
(lp3
S'tech'
p4
aS'nontech'
p5
asS'cc'
p6
(dp7
g4
I3445
sg5
I3369
ssS'getfeatures'
p8
c__main__
getwords
p9
sS'fc'
p10
(dp11
Vberblick
p12
(dp13
g4
I1
sg5
I0
ssVerzwingt
p14
(dp15
g4
I0
sg5
I1
ssVsterreichs
p16
(dp17
g4
I0
sg5
I1
ssVinternen
p18
(dp19
g4
I0
sg5
I1
ssVintels
p20
(dp21
g4
I1
sg5
I0
ssVbeobachten
p22
(dp23
g4
I0
sg5
I2
ssVsteigen
p24
(dp25
g4
I1
sg5
I1
ssVfrostbite
p26
(dp27
g4
I1
sg5
I0
ssVndischen
p28
(dp29
g4
I0
sg5
I1
ssVnachbarschaftskneipe
p30
(dp31
g4
I0
sg5
I1
ssVpatches
p32
(dp33
g4
I1
sg5
I0
ssVdazu
p34
(dp35
g4
I2
sg5
I2
ssVauf
p36
(dp37
g4
I31
sg5
I30
ssVrussisch
p38
(dp39
g4
I0
sg5
I1
ssVstirbt
p40
(dp41
g4
I1
sg5
I0
ssVinsges
p42
(dp43
g4
I1
sg5
I0
ssVaus
p44
(dp45
g4
I7
sg5
I11
ssVvoraus
p46
(dp47
g4
I1
sg5
I0
ssVmilit
p48
(dp49
g4
I0
sg5
I4
ssVneun
p50
(dp51
g4
I0
sg5
I3
ssVneue
p52
(dp53
g4
I16
sg5
I12
ssVdeutschlandfeindlich
p54
(dp55
g4
I0
sg5
I1
ssVverschiedener
p56
(dp57
g4
I0
sg5
I1
ssVgerade
p58
(dp59
g4
I1
sg5
I0
ssVverschiedenen
p60
(dp61
g4
I2
sg5
I0
ssVletzten
p62
(dp63
g4
I1
sg5
I1
ssVupdates
p64
(dp65
g4
I5
sg5
I0
ssValleiniger
p66
(dp67
g4
I0
sg5
I1
ssVamt
p68
(dp69
g4
I0
sg5
I1
ssVrechnern
p70
(dp71
g4
I1
sg5
I0
ssVgespeichert
p72
(dp73
g4
I0
sg5
I1
ssVentwicklern
p74
(dp75
g4
I1
sg5
I0
ssVupload
p76
(dp77
g4
I1
sg5
I0
ssVkommandoaktion
p78
(dp79
g4
I0
sg5
I1
ssVherbert
p80
(dp81
g4
I0
sg5
I1
ssVhaben
p82
(dp83
g4
I7
sg5
I10
ssVverbandes
p84
(dp85
g4
I1
sg5
I0
ssVrechners
p86
(dp87
g4
I1
sg5
I0
ssVanfang
p88
(dp89
g4
I2
sg5
I0
ssVblick
p90
(dp91
g4
I1
sg5
I0
ssVjuristisch
p92
(dp93
g4
I0
sg5
I1
ssVchtigungen
p94
(dp95
g4
I1
sg5
I0
ssVeismond
p96
(dp97
g4
I1
sg5
I0
ssVgucken
p98
(dp99
g4
I1
sg5
I0
ssVzuletzt
p100
(dp101
g4
I1
sg5
I2
ssVenth
p102
(dp103
g4
I1
sg5
I0
ssVngen
p104
(dp105
g4
I1
sg5
I0
ssVwarnt
p106
(dp107
g4
I1
sg5
I1
ssVpartei
p108
(dp109
g4
I0
sg5
I5
ssVchef
p110
(dp111
g4
I4
sg5
I2
ssVrlichsten
p112
(dp113
g4
I1
sg5
I0
ssVzunehmend
p114
(dp115
g4
I0
sg5
I1
ssVgegner
p116
(dp117
g4
I0
sg5
I1
ssVair
p118
(dp119
g4
I0
sg5
I1
ssVdatenschutz
p120
(dp121
g4
I5
sg5
I0
ssVzahlungssystem
p122
(dp123
g4
I0
sg5
I1
ssVitaliens
p124
(dp125
g4
I0
sg5
I2
ssVnen
p126
(dp127
g4
I1
sg5
I2
ssVchrist
p128
(dp129
g4
I1
sg5
I0
ssVsselte
p130
(dp131
g4
I1
sg5
I0
ssVsung
p132
(dp133
g4
I0
sg5
I1
ssVeinstellungen
p134
(dp135
g4
I1
sg5
I0
ssVpflicht
p136
(dp137
g4
I1
sg5
I0
ssVbevorstehenden
p138
(dp139
g4
I1
sg5
I0
ssVtraywicks
p140
(dp141
g4
I1
sg5
I0
ssVtipp
p142
(dp143
g4
I2
sg5
I0
ssVneu
p144
(dp145
g4
I3
sg5
I1
ssVberwachung
p146
(dp147
g4
I1
sg5
I0
ssVdort
p148
(dp149
g4
I0
sg5
I1
ssVgekapert
p150
(dp151
g4
I1
sg5
I0
ssVklartext
p152
(dp153
g4
I1
sg5
I0
ssVreporter
p154
(dp155
g4
I0
sg5
I1
ssVmenschen
p156
(dp157
g4
I1
sg5
I9
ssVhere
p158
(dp159
g4
I1
sg5
I0
ssVdrei
p160
(dp161
g4
I0
sg5
I4
ssVnicht
p162
(dp163
g4
I16
sg5
I26
ssVchina
p164
(dp165
g4
I0
sg5
I2
ssVermittlungen
p166
(dp167
g4
I0
sg5
I1
ssVmer
p168
(dp169
g4
I0
sg5
I1
ssVbeeintr
p170
(dp171
g4
I1
sg5
I0
ssVformfaktor
p172
(dp173
g4
I1
sg5
I0
ssVsyriens
p174
(dp175
g4
I0
sg5
I1
ssVsteckt
p176
(dp177
g4
I2
sg5
I0
ssVtelefonate
p178
(dp179
g4
I0
sg5
I1
ssVlahm
p180
(dp181
g4
I1
sg5
I0
ssVanstatt
p182
(dp183
g4
I1
sg5
I0
ssVlandleben
p184
(dp185
g4
I0
sg5
I1
ssVwohnraum
p186
(dp187
g4
I0
sg5
I1
ssVbayer
p188
(dp189
g4
I0
sg5
I4
ssVdatenabgleich
p190
(dp191
g4
I1
sg5
I0
ssVpatrick
p192
(dp193
g4
I1
sg5
I0
ssVcebit
p194
(dp195
g4
I1
sg5
I1
ssVgolden
p196
(dp197
g4
I1
sg5
I0
ssVwikimedia
p198
(dp199
g4
I1
sg5
I0
ssVreichen
p200
(dp201
g4
I0
sg5
I1
ssVflensburger
p202
(dp203
g4
I0
sg5
I1
ssVstern
p204
(dp205
g4
I0
sg5
I1
ssVverurteilt
p206
(dp207
g4
I0
sg5
I3
ssVbegrenzt
p208
(dp209
g4
I0
sg5
I1
ssVskandal
p210
(dp211
g4
I0
sg5
I1
ssVdna
p212
(dp213
g4
I2
sg5
I1
ssVafghanistan
p214
(dp215
g4
I0
sg5
I2
ssVmehrheitlich
p216
(dp217
g4
I1
sg5
I0
ssVeiniges
p218
(dp219
g4
I1
sg5
I0
ssVfehlentscheidungen
p220
(dp221
g4
I0
sg5
I1
ssVmassiven
p222
(dp223
g4
I0
sg5
I1
ssVbeteiligen
p224
(dp225
g4
I1
sg5
I0
ssVeinigen
p226
(dp227
g4
I1
sg5
I0
ssVvom
p228
(dp229
g4
I2
sg5
I4
ssVbesuch
p230
(dp231
g4
I0
sg5
I3
ssVmusik
p232
(dp233
g4
I0
sg5
I1
ssVwunden
p234
(dp235
g4
I0
sg5
I1
ssVmusk
p236
(dp237
g4
I1
sg5
I1
ssVsushi
p238
(dp239
g4
I0
sg5
I1
ssVniedergeschrien
p240
(dp241
g4
I0
sg5
I1
ssVltig
p242
(dp243
g4
I1
sg5
I0
ssVholt
p244
(dp245
g4
I0
sg5
I1
ssVbringt
p246
(dp247
g4
I2
sg5
I1
ssVberlin
p248
(dp249
g4
I0
sg5
I4
ssVsicher
p250
(dp251
g4
I2
sg5
I2
ssVmuss
p252
(dp253
g4
I3
sg5
I6
ssVdampfmaschine
p254
(dp255
g4
I1
sg5
I0
ssVmarktstart
p256
(dp257
g4
I1
sg5
I0
ssVsizilien
p258
(dp259
g4
I0
sg5
I1
ssVerw
p260
(dp261
g4
I0
sg5
I1
ssVpolitiker
p262
(dp263
g4
I0
sg5
I3
ssVmitbewerbern
p264
(dp265
g4
I1
sg5
I0
ssVwussten
p266
(dp267
g4
I0
sg5
I2
ssVweiteres
p268
(dp269
g4
I1
sg5
I0
ssVweiterer
p270
(dp271
g4
I1
sg5
I0
ssVerz
p272
(dp273
g4
I1
sg5
I1
ssVoled
p274
(dp275
g4
I1
sg5
I0
ssVstadt
p276
(dp277
g4
I0
sg5
I2
ssVgelegenheit
p278
(dp279
g4
I1
sg5
I0
ssVern
p280
(dp281
g4
I0
sg5
I1
ssVkamera
p282
(dp283
g4
I1
sg5
I0
ssVerh
p284
(dp285
g4
I1
sg5
I0
ssVherung
p286
(dp287
g4
I0
sg5
I1
ssVnftig
p288
(dp289
g4
I1
sg5
I1
ssVdambisa
p290
(dp291
g4
I0
sg5
I1
ssVgegen
p292
(dp293
g4
I7
sg5
I13
ssVwann
p294
(dp295
g4
I2
sg5
I0
ssVvers
p296
(dp297
g4
I1
sg5
I0
ssVgadgets
p298
(dp299
g4
I1
sg5
I1
ssVhling
p300
(dp301
g4
I0
sg5
I1
ssVgeben
p302
(dp303
g4
I1
sg5
I2
ssVsterben
p304
(dp305
g4
I0
sg5
I1
ssVwirklich
p306
(dp307
g4
I1
sg5
I1
ssVjungen
p308
(dp309
g4
I0
sg5
I3
ssVbefehl
p310
(dp311
g4
I1
sg5
I0
ssVfunkverbindungen
p312
(dp313
g4
I1
sg5
I0
ssVanderer
p314
(dp315
g4
I1
sg5
I0
ssVniemand
p316
(dp317
g4
I0
sg5
I1
ssVend
p318
(dp319
g4
I1
sg5
I0
ssVbund
p320
(dp321
g4
I1
sg5
I1
ssVweiterhin
p322
(dp323
g4
I4
sg5
I1
ssVquot
p324
(dp325
g4
I8
sg5
I0
ssVsatz
p326
(dp327
g4
I1
sg5
I1
ssVische
p328
(dp329
g4
I1
sg5
I1
ssVfrauen
p330
(dp331
g4
I0
sg5
I2
ssVkabul
p332
(dp333
g4
I0
sg5
I2
ssVkehrtwende
p334
(dp335
g4
I0
sg5
I1
ssVvogelschiss
p336
(dp337
g4
I0
sg5
I4
ssVaugen
p338
(dp339
g4
I1
sg5
I1
ssVpositionieren
p340
(dp341
g4
I0
sg5
I1
ssVinterview
p342
(dp343
g4
I3
sg5
I2
ssVanderen
p344
(dp345
g4
I1
sg5
I2
ssVanderem
p346
(dp347
g4
I1
sg5
I1
ssVgaming
p348
(dp349
g4
I1
sg5
I0
ssVbares
p350
(dp351
g4
I1
sg5
I0
ssVturing
p352
(dp353
g4
I1
sg5
I0
ssVdeaktiviert
p354
(dp355
g4
I1
sg5
I0
ssVdreht
p356
(dp357
g4
I1
sg5
I0
ssVbillig
p358
(dp359
g4
I1
sg5
I0
ssVanwendern
p360
(dp361
g4
I2
sg5
I0
ssVbayerns
p362
(dp363
g4
I1
sg5
I0
ssVopenai
p364
(dp365
g4
I1
sg5
I0
ssVberlegt
p366
(dp367
g4
I1
sg5
I0
ssVabenteuer
p368
(dp369
g4
I0
sg5
I2
ssVverbrauchen
p370
(dp371
g4
I1
sg5
I0
ssVbesitz
p372
(dp373
g4
I1
sg5
I0
ssVvermeintlich
p374
(dp375
g4
I0
sg5
I1
ssVvfl
p376
(dp377
g4
I0
sg5
I1
ssVreagiert
p378
(dp379
g4
I1
sg5
I0
ssVdeutsche
p380
(dp381
g4
I3
sg5
I6
ssVvorkasse
p382
(dp383
g4
I1
sg5
I0
ssVtutzinger
p384
(dp385
g4
I0
sg5
I1
ssVreagiere
p386
(dp387
g4
I0
sg5
I1
ssVwladimir
p388
(dp389
g4
I0
sg5
I1
ssVeinmal
p390
(dp391
g4
I2
sg5
I1
ssVpolizisten
p392
(dp393
g4
I1
sg5
I0
ssVfolgten
p394
(dp395
g4
I1
sg5
I0
ssVchtlingen
p396
(dp397
g4
I0
sg5
I1
ssVfremde
p398
(dp399
g4
I2
sg5
I0
ssVoffice
p400
(dp401
g4
I1
sg5
I0
ssVverbindlich
p402
(dp403
g4
I1
sg5
I0
ssVover
p404
(dp405
g4
I1
sg5
I0
ssVfall
p406
(dp407
g4
I0
sg5
I2
ssVfeiernder
p408
(dp409
g4
I0
sg5
I1
ssVrelativiert
p410
(dp411
g4
I0
sg5
I1
ssVnetz
p412
(dp413
g4
I2
sg5
I0
ssVverh
p414
(dp415
g4
I0
sg5
I2
ssVorganisieren
p416
(dp417
g4
I0
sg5
I1
ssVmitnehmen
p418
(dp419
g4
I1
sg5
I0
ssVscoring
p420
(dp421
g4
I1
sg5
I0
ssVnscht
p422
(dp423
g4
I0
sg5
I1
ssVregieren
p424
(dp425
g4
I0
sg5
I1
ssVreligionsf
p426
(dp427
g4
I0
sg5
I2
ssVschallt
p428
(dp429
g4
I0
sg5
I1
ssVfit
p430
(dp431
g4
I0
sg5
I1
ssVstrafz
p432
(dp433
g4
I0
sg5
I2
ssVkritische
p434
(dp435
g4
I1
sg5
I0
ssVbisher
p436
(dp437
g4
I2
sg5
I0
ssVdenver
p438
(dp439
g4
I0
sg5
I1
ssVempfohlen
p440
(dp441
g4
I1
sg5
I0
ssVgesungen
p442
(dp443
g4
I0
sg5
I1
ssVneustart
p444
(dp445
g4
I2
sg5
I0
ssVstrategie
p446
(dp447
g4
I0
sg5
I1
ssVschont
p448
(dp449
g4
I1
sg5
I0
ssVskeptisch
p450
(dp451
g4
I1
sg5
I0
ssVdorthin
p452
(dp453
g4
I1
sg5
I0
ssVmaximal
p454
(dp455
g4
I0
sg5
I1
ssVfreundinnen
p456
(dp457
g4
I0
sg5
I1
ssVanlegen
p458
(dp459
g4
I1
sg5
I0
ssVkalter
p460
(dp461
g4
I0
sg5
I1
ssVislamistischen
p462
(dp463
g4
I0
sg5
I1
ssVbank
p464
(dp465
g4
I0
sg5
I2
ssVwenn
p466
(dp467
g4
I4
sg5
I5
ssVmindestens
p468
(dp469
g4
I3
sg5
I3
ssVklingen
p470
(dp471
g4
I1
sg5
I0
ssVrhetorik
p472
(dp473
g4
I0
sg5
I1
ssVdinge
p474
(dp475
g4
I1
sg5
I0
ssVtelekom
p476
(dp477
g4
I1
sg5
I0
ssVboni
p478
(dp479
g4
I0
sg5
I1
ssVnetanjahu
p480
(dp481
g4
I0
sg5
I1
ssVihn
p482
(dp483
g4
I0
sg5
I1
ssVabbruch
p484
(dp485
g4
I0
sg5
I1
ssVmonsanto
p486
(dp487
g4
I0
sg5
I5
ssVangola
p488
(dp489
g4
I0
sg5
I1
ssVpgp
p490
(dp491
g4
I5
sg5
I0
ssValarmiert
p492
(dp493
g4
I0
sg5
I1
ssVdanach
p494
(dp495
g4
I1
sg5
I1
ssVabge
p496
(dp497
g4
I1
sg5
I0
ssVlebensphilosophie
p498
(dp499
g4
I0
sg5
I1
ssVskins
p500
(dp501
g4
I1
sg5
I0
ssVmedien
p502
(dp503
g4
I1
sg5
I0
ssVultrarechten
p504
(dp505
g4
I0
sg5
I1
ssVmanche
p506
(dp507
g4
I0
sg5
I1
ssVgeraumer
p508
(dp509
g4
I1
sg5
I0
ssVunternehmen
p510
(dp511
g4
I3
sg5
I0
ssVeibesfeldt
p512
(dp513
g4
I0
sg5
I1
ssVhalbe
p514
(dp515
g4
I2
sg5
I0
ssVstunden
p516
(dp517
g4
I1
sg5
I1
ssVdateitypen
p518
(dp519
g4
I1
sg5
I0
ssVdiesen
p520
(dp521
g4
I1
sg5
I2
ssVschnitten
p522
(dp523
g4
I1
sg5
I0
ssVdsl
p524
(dp525
g4
I1
sg5
I0
ssVdieses
p526
(dp527
g4
I1
sg5
I1
ssVkoalitionsvertrag
p528
(dp529
g4
I0
sg5
I2
ssVberlasten
p530
(dp531
g4
I1
sg5
I0
ssVaufkl
p532
(dp533
g4
I0
sg5
I1
ssVrter
p534
(dp535
g4
I1
sg5
I0
ssVfoundation
p536
(dp537
g4
I1
sg5
I0
ssVfrei
p538
(dp539
g4
I0
sg5
I1
ssVwenigen
p540
(dp541
g4
I1
sg5
I1
ssVneukauf
p542
(dp543
g4
I1
sg5
I0
ssVmessband
p544
(dp545
g4
I1
sg5
I0
ssVndert
p546
(dp547
g4
I1
sg5
I2
ssVkandidat
p548
(dp549
g4
I0
sg5
I1
ssVstandard
p550
(dp551
g4
I1
sg5
I0
ssVfolgenreichen
p552
(dp553
g4
I0
sg5
I1
ssVunterscheiden
p554
(dp555
g4
I1
sg5
I0
ssVunbedingt
p556
(dp557
g4
I1
sg5
I1
ssVspringtime
p558
(dp559
g4
I0
sg5
I1
ssVndern
p560
(dp561
g4
I0
sg5
I1
ssVgeworden
p562
(dp563
g4
I0
sg5
I1
ssVweniger
p564
(dp565
g4
I1
sg5
I1
ssVgemeinsamen
p566
(dp567
g4
I1
sg5
I0
ssViss
p568
(dp569
g4
I0
sg5
I1
ssVdienstprogramm
p570
(dp571
g4
I1
sg5
I0
ssVaufmerksamkeit
p572
(dp573
g4
I0
sg5
I1
ssVist
p574
(dp575
g4
I27
sg5
I36
ssVfilter
p576
(dp577
g4
I1
sg5
I0
ssVmagdeburg
p578
(dp579
g4
I1
sg5
I0
ssVgesundem
p580
(dp581
g4
I0
sg5
I1
ssVnordrhein
p582
(dp583
g4
I0
sg5
I1
ssVvorbereitet
p584
(dp585
g4
I1
sg5
I0
ssVsident
p586
(dp587
g4
I0
sg5
I12
ssVste
p588
(dp589
g4
I0
sg5
I3
ssVestland
p590
(dp591
g4
I0
sg5
I1
ssVeiner
p592
(dp593
g4
I3
sg5
I12
ssVeines
p594
(dp595
g4
I5
sg5
I4
ssVbeantragt
p596
(dp597
g4
I0
sg5
I1
ssVaufheben
p598
(dp599
g4
I0
sg5
I1
ssVflickflack
p600
(dp601
g4
I0
sg5
I1
ssVgottes
p602
(dp603
g4
I0
sg5
I1
ssVlautet
p604
(dp605
g4
I0
sg5
I1
ssVanwendung
p606
(dp607
g4
I1
sg5
I0
ssVlauter
p608
(dp609
g4
I1
sg5
I0
ssVpreis
p610
(dp611
g4
I2
sg5
I0
ssVeinen
p612
(dp613
g4
I15
sg5
I14
ssVeinem
p614
(dp615
g4
I12
sg5
I8
ssVrechtspopulisten
p616
(dp617
g4
I0
sg5
I1
ssVversandriese
p618
(dp619
g4
I1
sg5
I0
ssVendlich
p620
(dp621
g4
I2
sg5
I0
ssVmillionen
p622
(dp623
g4
I2
sg5
I1
ssVgrundrechte
p624
(dp625
g4
I1
sg5
I0
ssVraten
p626
(dp627
g4
I1
sg5
I0
ssVbitcoin
p628
(dp629
g4
I2
sg5
I0
ssVtot
p630
(dp631
g4
I1
sg5
I1
ssVhnlich
p632
(dp633
g4
I0
sg5
I1
ssVkinder
p634
(dp635
g4
I1
sg5
I5
ssVschlagen
p636
(dp637
g4
I1
sg5
I0
ssVchartern
p638
(dp639
g4
I0
sg5
I1
ssVbittet
p640
(dp641
g4
I1
sg5
I0
ssVgestrichenen
p642
(dp643
g4
I0
sg5
I1
ssVballistik
p644
(dp645
g4
I1
sg5
I0
ssVtod
p646
(dp647
g4
I1
sg5
I1
ssVlaufen
p648
(dp649
g4
I2
sg5
I0
ssVganze
p650
(dp651
g4
I0
sg5
I1
ssVerreichen
p652
(dp653
g4
I1
sg5
I0
ssVbetriebssystems
p654
(dp655
g4
I2
sg5
I0
ssVtechnikpanne
p656
(dp657
g4
I1
sg5
I0
ssVsaisonkr
p658
(dp659
g4
I0
sg5
I1
ssVusche
p660
(dp661
g4
I1
sg5
I0
ssVministerpr
p662
(dp663
g4
I0
sg5
I3
ssVentl
p664
(dp665
g4
I0
sg5
I1
ssVbeiden
p666
(dp667
g4
I0
sg5
I1
ssVstartetet
p668
(dp669
g4
I1
sg5
I0
ssVndigung
p670
(dp671
g4
I0
sg5
I1
ssVbinnen
p672
(dp673
g4
I0
sg5
I1
ssVdrdisrespect
p674
(dp675
g4
I1
sg5
I0
ssVrealismus
p676
(dp677
g4
I1
sg5
I0
ssVnger
p678
(dp679
g4
I1
sg5
I0
ssVschleppend
p680
(dp681
g4
I0
sg5
I1
ssVvielen
p682
(dp683
g4
I2
sg5
I2
ssVmachthaber
p684
(dp685
g4
I0
sg5
I1
ssVsammlungspartei
p686
(dp687
g4
I0
sg5
I1
ssVmatteo
p688
(dp689
g4
I0
sg5
I1
ssVboard
p690
(dp691
g4
I0
sg5
I1
ssVverraten
p692
(dp693
g4
I1
sg5
I0
ssVhlerpotenzial
p694
(dp695
g4
I0
sg5
I1
ssVtrifft
p696
(dp697
g4
I0
sg5
I1
ssVvertr
p698
(dp699
g4
I1
sg5
I1
ssVvieles
p700
(dp701
g4
I1
sg5
I0
ssVgeplanter
p702
(dp703
g4
I1
sg5
I0
ssVleihen
p704
(dp705
g4
I1
sg5
I0
ssVentt
p706
(dp707
g4
I0
sg5
I1
ssVmini
p708
(dp709
g4
I1
sg5
I0
ssVriesiges
p710
(dp711
g4
I1
sg5
I0
ssVflugzeug
p712
(dp713
g4
I0
sg5
I1
ssVparlamentswahl
p714
(dp715
g4
I0
sg5
I1
ssVboston
p716
(dp717
g4
I1
sg5
I0
ssVangeschaut
p718
(dp719
g4
I1
sg5
I0
ssVinfrastrukturbeh
p720
(dp721
g4
I1
sg5
I0
ssVrat
p722
(dp723
g4
I1
sg5
I0
ssVjahrzehnte
p724
(dp725
g4
I0
sg5
I1
ssVpetersen
p726
(dp727
g4
I0
sg5
I5
ssVlautsprecher
p728
(dp729
g4
I1
sg5
I0
ssVbeilage
p730
(dp731
g4
I0
sg5
I1
ssVaktiviertem
p732
(dp733
g4
I1
sg5
I0
ssVentschuldigen
p734
(dp735
g4
I0
sg5
I1
ssVreall
p736
(dp737
g4
I1
sg5
I0
ssVrte
p738
(dp739
g4
I0
sg5
I1
ssVbesucher
p740
(dp741
g4
I2
sg5
I1
ssVepalast
p742
(dp743
g4
I0
sg5
I1
ssVkapert
p744
(dp745
g4
I1
sg5
I0
ssVmeistertitel
p746
(dp747
g4
I0
sg5
I1
ssVmaltas
p748
(dp749
g4
I0
sg5
I1
ssVnsche
p750
(dp751
g4
I0
sg5
I2
ssVitaliener
p752
(dp753
g4
I0
sg5
I1
ssVandroht
p754
(dp755
g4
I0
sg5
I1
ssVsonde
p756
(dp757
g4
I1
sg5
I0
ssVbruch
p758
(dp759
g4
I0
sg5
I1
ssVinzwischen
p760
(dp761
g4
I0
sg5
I1
ssVkostenlose
p762
(dp763
g4
I2
sg5
I0
ssVkrempelt
p764
(dp765
g4
I1
sg5
I0
ssVentsch
p766
(dp767
g4
I1
sg5
I1
ssVwertvolle
p768
(dp769
g4
I0
sg5
I1
ssVinnenministerium
p770
(dp771
g4
I0
sg5
I2
ssVkapit
p772
(dp773
g4
I0
sg5
I1
ssVmaria
p774
(dp775
g4
I0
sg5
I1
ssVangeblich
p776
(dp777
g4
I3
sg5
I1
ssVnachrichtenseite
p778
(dp779
g4
I1
sg5
I0
ssVpolitisches
p780
(dp781
g4
I0
sg5
I1
ssVkleine
p782
(dp783
g4
I1
sg5
I0
ssVflop
p784
(dp785
g4
I1
sg5
I0
ssVventivhaft
p786
(dp787
g4
I1
sg5
I0
ssVwaffe
p788
(dp789
g4
I0
sg5
I2
ssVkanadische
p790
(dp791
g4
I1
sg5
I0
ssVuschreduzierenden
p792
(dp793
g4
I1
sg5
I0
ssVzweiten
p794
(dp795
g4
I0
sg5
I1
ssVagnes
p796
(dp797
g4
I0
sg5
I1
ssVnotfallsystems
p798
(dp799
g4
I1
sg5
I0
ssValtmaier
p800
(dp801
g4
I0
sg5
I1
ssVhunger
p802
(dp803
g4
I1
sg5
I0
ssVbehindern
p804
(dp805
g4
I0
sg5
I1
ssVdicker
p806
(dp807
g4
I1
sg5
I0
ssVgendatenbanken
p808
(dp809
g4
I1
sg5
I0
ssVanfragen
p810
(dp811
g4
I0
sg5
I1
ssVausgeben
p812
(dp813
g4
I1
sg5
I0
ssVeingestellt
p814
(dp815
g4
I1
sg5
I0
ssVspeicherfresser
p816
(dp817
g4
I1
sg5
I0
ssVdigitalisierung
p818
(dp819
g4
I2
sg5
I1
ssVdessen
p820
(dp821
g4
I1
sg5
I3
ssVeinheimischen
p822
(dp823
g4
I0
sg5
I1
ssVzte
p824
(dp825
g4
I1
sg5
I0
ssVhrt
p826
(dp827
g4
I1
sg5
I1
ssVverkauf
p828
(dp829
g4
I1
sg5
I0
ssVaufgedeckte
p830
(dp831
g4
I1
sg5
I0
ssValdi
p832
(dp833
g4
I2
sg5
I0
ssVsehen
p834
(dp835
g4
I2
sg5
I2
ssVerung
p836
(dp837
g4
I0
sg5
I3
ssVsidentschaftswahlen
p838
(dp839
g4
I0
sg5
I1
ssVsieg
p840
(dp841
g4
I0
sg5
I1
ssVroseanne
p842
(dp843
g4
I0
sg5
I1
ssVflaute
p844
(dp845
g4
I0
sg5
I1
ssVtatverd
p846
(dp847
g4
I0
sg5
I1
ssVrisiko
p848
(dp849
g4
I0
sg5
I1
ssVjupitersonde
p850
(dp851
g4
I1
sg5
I0
ssVamazon
p852
(dp853
g4
I3
sg5
I0
ssVslowenische
p854
(dp855
g4
I0
sg5
I1
ssVreport
p856
(dp857
g4
I1
sg5
I0
ssVunbedingten
p858
(dp859
g4
I0
sg5
I1
ssVgegenw
p860
(dp861
g4
I1
sg5
I0
ssVgespr
p862
(dp863
g4
I1
sg5
I0
ssVplatz
p864
(dp865
g4
I1
sg5
I1
ssVgbyte
p866
(dp867
g4
I1
sg5
I0
ssVbar
p868
(dp869
g4
I0
sg5
I1
ssVasylbewerber
p870
(dp871
g4
I0
sg5
I2
ssVkritisiert
p872
(dp873
g4
I0
sg5
I1
ssVsinken
p874
(dp875
g4
I0
sg5
I1
ssVgelten
p876
(dp877
g4
I1
sg5
I0
ssVrechtsextremen
p878
(dp879
g4
I0
sg5
I1
ssVbernommen
p880
(dp881
g4
I1
sg5
I0
ssVemp
p882
(dp883
g4
I0
sg5
I1
ssVrung
p884
(dp885
g4
I0
sg5
I4
ssVnichts
p886
(dp887
g4
I1
sg5
I0
ssVerfinden
p888
(dp889
g4
I0
sg5
I1
ssVbefristungen
p890
(dp891
g4
I0
sg5
I2
ssVears
p892
(dp893
g4
I1
sg5
I0
ssVwohneigentum
p894
(dp895
g4
I0
sg5
I1
ssVlandtag
p896
(dp897
g4
I1
sg5
I0
ssVrockstar
p898
(dp899
g4
I0
sg5
I3
ssVspionage
p900
(dp901
g4
I1
sg5
I0
ssVzahlen
p902
(dp903
g4
I3
sg5
I0
ssVjahren
p904
(dp905
g4
I3
sg5
I4
ssVnun
p906
(dp907
g4
I7
sg5
I11
ssVmicrocode
p908
(dp909
g4
I1
sg5
I0
ssVschaar
p910
(dp911
g4
I1
sg5
I0
ssVeigener
p912
(dp913
g4
I1
sg5
I0
ssVbest
p914
(dp915
g4
I1
sg5
I1
ssVbezahlen
p916
(dp917
g4
I0
sg5
I1
ssVschlauesten
p918
(dp919
g4
I1
sg5
I0
ssVrchten
p920
(dp921
g4
I0
sg5
I1
ssVwikipedia
p922
(dp923
g4
I2
sg5
I0
ssVsseldorfer
p924
(dp925
g4
I1
sg5
I0
ssVbekannt
p926
(dp927
g4
I0
sg5
I2
ssVweitem
p928
(dp929
g4
I1
sg5
I0
ssVverfehlt
p930
(dp931
g4
I0
sg5
I1
ssVerhalten
p932
(dp933
g4
I2
sg5
I2
ssVmaxvorstadt
p934
(dp935
g4
I0
sg5
I1
ssVschafften
p936
(dp937
g4
I1
sg5
I0
ssVartikel
p938
(dp939
g4
I1
sg5
I0
ssVwelche
p940
(dp941
g4
I4
sg5
I1
ssVdiese
p942
(dp943
g4
I6
sg5
I3
ssVregierungsbezirk
p944
(dp945
g4
I0
sg5
I1
ssVlegten
p946
(dp947
g4
I1
sg5
I0
ssVangreifern
p948
(dp949
g4
I1
sg5
I0
ssVnaturforscher
p950
(dp951
g4
I0
sg5
I1
ssVnews
p952
(dp953
g4
I1
sg5
I0
ssVmotto
p954
(dp955
g4
I2
sg5
I0
ssVaktivit
p956
(dp957
g4
I0
sg5
I1
ssVstaatschefs
p958
(dp959
g4
I0
sg5
I1
ssVnummer
p960
(dp961
g4
I2
sg5
I2
ssVuns
p962
(dp963
g4
I2
sg5
I1
ssVbankgesch
p964
(dp965
g4
I1
sg5
I0
ssVaktie
p966
(dp967
g4
I1
sg5
I1
ssVkommen
p968
(dp969
g4
I3
sg5
I2
ssVumzug
p970
(dp971
g4
I2
sg5
I0
ssVbeschwerden
p972
(dp973
g4
I1
sg5
I0
ssVgames
p974
(dp975
g4
I1
sg5
I0
ssVgamer
p976
(dp977
g4
I2
sg5
I0
ssVuni
p978
(dp979
g4
I0
sg5
I1
ssVnachrichtenagentur
p980
(dp981
g4
I0
sg5
I1
ssVcom
p982
(dp983
g4
I1
sg5
I0
ssVeinblick
p984
(dp985
g4
I1
sg5
I0
ssVaktuell
p986
(dp987
g4
I1
sg5
I0
ssVberufung
p988
(dp989
g4
I1
sg5
I0
ssVbildschirm
p990
(dp991
g4
I2
sg5
I0
ssVkindern
p992
(dp993
g4
I0
sg5
I1
ssVums
p994
(dp995
g4
I1
sg5
I1
ssVnktlich
p996
(dp997
g4
I1
sg5
I0
ssVkaren
p998
(dp999
g4
I0
sg5
I1
ssVtzung
p1000
(dp1001
g4
I1
sg5
I0
ssVwoodstock
p1002
(dp1003
g4
I0
sg5
I1
ssVdenkender
p1004
(dp1005
g4
I1
sg5
I0
ssVwider
p1006
(dp1007
g4
I1
sg5
I1
ssVantiterrorkampf
p1008
(dp1009
g4
I0
sg5
I1
ssVsoziale
p1010
(dp1011
g4
I1
sg5
I0
ssVnovember
p1012
(dp1013
g4
I1
sg5
I0
ssVtraywick
p1014
(dp1015
g4
I2
sg5
I0
ssVinfotainment
p1016
(dp1017
g4
I1
sg5
I0
ssVfreunde
p1018
(dp1019
g4
I0
sg5
I1
ssVrichtervorbehalt
p1020
(dp1021
g4
I1
sg5
I0
ssVlehnen
p1022
(dp1023
g4
I0
sg5
I1
ssVengsten
p1024
(dp1025
g4
I0
sg5
I1
ssVhrliche
p1026
(dp1027
g4
I0
sg5
I1
ssVstudie
p1028
(dp1029
g4
I2
sg5
I1
ssVwichtige
p1030
(dp1031
g4
I1
sg5
I2
ssVverwerten
p1032
(dp1033
g4
I1
sg5
I0
ssVhass
p1034
(dp1035
g4
I0
sg5
I2
ssVmitte
p1036
(dp1037
g4
I0
sg5
I2
ssVschutz
p1038
(dp1039
g4
I1
sg5
I0
ssVwebsite
p1040
(dp1041
g4
I0
sg5
I2
ssVaufgabe
p1042
(dp1043
g4
I1
sg5
I0
ssVaufgehoben
p1044
(dp1045
g4
I1
sg5
I0
ssVuntersuchung
p1046
(dp1047
g4
I0
sg5
I1
ssVunterdessen
p1048
(dp1049
g4
I0
sg5
I1
ssVhinein
p1050
(dp1051
g4
I0
sg5
I1
ssVausbootung
p1052
(dp1053
g4
I0
sg5
I1
ssVdischen
p1054
(dp1055
g4
I0
sg5
I1
ssVfindet
p1056
(dp1057
g4
I2
sg5
I1
ssVfest
p1058
(dp1059
g4
I0
sg5
I4
ssVverlangt
p1060
(dp1061
g4
I0
sg5
I2
ssVerst
p1062
(dp1063
g4
I2
sg5
I1
ssVausgenutzt
p1064
(dp1065
g4
I1
sg5
I0
ssVverunsicherung
p1066
(dp1067
g4
I1
sg5
I0
ssVwusste
p1068
(dp1069
g4
I0
sg5
I1
ssVaufsichtsbeh
p1070
(dp1071
g4
I1
sg5
I0
ssVforsa
p1072
(dp1073
g4
I0
sg5
I1
ssVausschuss
p1074
(dp1075
g4
I0
sg5
I1
ssVentwickelten
p1076
(dp1077
g4
I1
sg5
I0
ssVhiger
p1078
(dp1079
g4
I1
sg5
I0
ssVhrenden
p1080
(dp1081
g4
I1
sg5
I0
ssVtzt
p1082
(dp1083
g4
I0
sg5
I1
ssVgeduld
p1084
(dp1085
g4
I0
sg5
I1
ssVwenig
p1086
(dp1087
g4
I1
sg5
I2
ssVisierung
p1088
(dp1089
g4
I1
sg5
I0
ssVplayer
p1090
(dp1091
g4
I1
sg5
I0
ssVtennisstars
p1092
(dp1093
g4
I0
sg5
I1
ssVtze
p1094
(dp1095
g4
I0
sg5
I2
ssVhrender
p1096
(dp1097
g4
I0
sg5
I1
ssVordentlich
p1098
(dp1099
g4
I1
sg5
I0
ssVangebote
p1100
(dp1101
g4
I1
sg5
I0
ssVjansa
p1102
(dp1103
g4
I0
sg5
I1
ssVentscheidungsgremium
p1104
(dp1105
g4
I1
sg5
I0
ssVseiner
p1106
(dp1107
g4
I2
sg5
I1
ssVkommission
p1108
(dp1109
g4
I2
sg5
I0
ssVuntersuchen
p1110
(dp1111
g4
I0
sg5
I1
ssVvertrauen
p1112
(dp1113
g4
I0
sg5
I1
ssVverhallen
p1114
(dp1115
g4
I1
sg5
I0
ssVpubg
p1116
(dp1117
g4
I1
sg5
I0
ssVbergehend
p1118
(dp1119
g4
I1
sg5
I0
ssVkulturen
p1120
(dp1121
g4
I0
sg5
I2
ssVfunktionen
p1122
(dp1123
g4
I2
sg5
I0
ssVjetzt
p1124
(dp1125
g4
I7
sg5
I3
ssVlegen
p1126
(dp1127
g4
I1
sg5
I0
ssVschwangerschaft
p1128
(dp1129
g4
I0
sg5
I1
ssVantworten
p1130
(dp1131
g4
I1
sg5
I0
ssVkim
p1132
(dp1133
g4
I0
sg5
I4
ssVtung
p1134
(dp1135
g4
I1
sg5
I0
ssVminimalistische
p1136
(dp1137
g4
I1
sg5
I0
ssVrfleistung
p1138
(dp1139
g4
I1
sg5
I0
ssVihren
p1140
(dp1141
g4
I2
sg5
I1
ssVverletzt
p1142
(dp1143
g4
I0
sg5
I1
ssVverbucht
p1144
(dp1145
g4
I0
sg5
I1
ssVerhofft
p1146
(dp1147
g4
I1
sg5
I0
ssVclient
p1148
(dp1149
g4
I1
sg5
I0
ssVbertragen
p1150
(dp1151
g4
I1
sg5
I0
ssVthe
p1152
(dp1153
g4
I2
sg5
I0
ssVihrer
p1154
(dp1155
g4
I2
sg5
I2
ssVanfangszeit
p1156
(dp1157
g4
I1
sg5
I0
ssVregierungschefs
p1158
(dp1159
g4
I0
sg5
I1
ssVandere
p1160
(dp1161
g4
I0
sg5
I2
ssVbundestag
p1162
(dp1163
g4
I0
sg5
I2
ssVwahl
p1164
(dp1165
g4
I0
sg5
I1
ssVkalk
p1166
(dp1167
g4
I0
sg5
I1
ssVassigned
p1168
(dp1169
g4
I1
sg5
I0
ssVgrades
p1170
(dp1171
g4
I1
sg5
I0
ssVankerzentren
p1172
(dp1173
g4
I0
sg5
I1
ssVzuagroaste
p1174
(dp1175
g4
I0
sg5
I1
ssVrussland
p1176
(dp1177
g4
I1
sg5
I7
ssVssten
p1178
(dp1179
g4
I0
sg5
I1
ssVtschelt
p1180
(dp1181
g4
I0
sg5
I1
ssVsoftbank
p1182
(dp1183
g4
I1
sg5
I0
ssVfeuerwehr
p1184
(dp1185
g4
I1
sg5
I0
ssVwiderstand
p1186
(dp1187
g4
I0
sg5
I2
ssVfalten
p1188
(dp1189
g4
I1
sg5
I0
ssVheizt
p1190
(dp1191
g4
I2
sg5
I0
ssVenhandel
p1192
(dp1193
g4
I0
sg5
I1
ssVgewinnen
p1194
(dp1195
g4
I1
sg5
I1
ssVstabilere
p1196
(dp1197
g4
I1
sg5
I0
ssVhemmung
p1198
(dp1199
g4
I0
sg5
I1
ssVaktiv
p1200
(dp1201
g4
I0
sg5
I1
ssVgewinner
p1202
(dp1203
g4
I1
sg5
I0
ssVweise
p1204
(dp1205
g4
I1
sg5
I0
ssVbasiert
p1206
(dp1207
g4
I1
sg5
I0
ssVwhatsapp
p1208
(dp1209
g4
I1
sg5
I0
ssVhat
p1210
(dp1211
g4
I26
sg5
I26
ssVfragt
p1212
(dp1213
g4
I2
sg5
I0
ssVbnd
p1214
(dp1215
g4
I2
sg5
I0
ssVunter
p1216
(dp1217
g4
I6
sg5
I4
ssVscherschel
p1218
(dp1219
g4
I1
sg5
I0
ssVglasbruch
p1220
(dp1221
g4
I1
sg5
I0
ssVfusion
p1222
(dp1223
g4
I0
sg5
I1
ssVfirmen
p1224
(dp1225
g4
I0
sg5
I2
ssVschalter
p1226
(dp1227
g4
I1
sg5
I0
ssVeuropaparlament
p1228
(dp1229
g4
I2
sg5
I0
ssVprozessoren
p1230
(dp1231
g4
I1
sg5
I0
ssVlebenslanger
p1232
(dp1233
g4
I0
sg5
I1
ssVeigene
p1234
(dp1235
g4
I4
sg5
I1
ssVweinen
p1236
(dp1237
g4
I0
sg5
I1
ssVrkischen
p1238
(dp1239
g4
I0
sg5
I2
ssVstrafzollank
p1240
(dp1241
g4
I0
sg5
I1
ssVpubert
p1242
(dp1243
g4
I0
sg5
I1
ssVeigent
p1244
(dp1245
g4
I0
sg5
I1
ssVerwartenden
p1246
(dp1247
g4
I1
sg5
I0
ssVsebastian
p1248
(dp1249
g4
I0
sg5
I2
ssVnils
p1250
(dp1251
g4
I0
sg5
I1
ssVmeisten
p1252
(dp1253
g4
I1
sg5
I2
ssVbattlefield
p1254
(dp1255
g4
I2
sg5
I0
ssVdatenverarbeitungen
p1256
(dp1257
g4
I1
sg5
I0
ssVmutma
p1258
(dp1259
g4
I0
sg5
I1
ssVdeal
p1260
(dp1261
g4
I0
sg5
I1
ssVdeutschlands
p1262
(dp1263
g4
I1
sg5
I0
ssVpropganda
p1264
(dp1265
g4
I0
sg5
I1
ssVsagt
p1266
(dp1267
g4
I0
sg5
I1
ssVtechnischen
p1268
(dp1269
g4
I1
sg5
I1
ssVdonald
p1270
(dp1271
g4
I0
sg5
I6
ssVfeier
p1272
(dp1273
g4
I1
sg5
I0
ssVbedingung
p1274
(dp1275
g4
I0
sg5
I2
ssVkostet
p1276
(dp1277
g4
I1
sg5
I0
ssVbefand
p1278
(dp1279
g4
I1
sg5
I0
ssVwirft
p1280
(dp1281
g4
I1
sg5
I0
ssVumt
p1282
(dp1283
g4
I0
sg5
I1
ssVaufs
p1284
(dp1285
g4
I1
sg5
I0
ssVphilippinischer
p1286
(dp1287
g4
I0
sg5
I1
ssVfor
p1288
(dp1289
g4
I1
sg5
I0
ssVputins
p1290
(dp1291
g4
I0
sg5
I1
ssVbisschen
p1292
(dp1293
g4
I0
sg5
I1
ssVwahrheit
p1294
(dp1295
g4
I0
sg5
I1
ssVzeuge
p1296
(dp1297
g4
I0
sg5
I1
ssVdiktatur
p1298
(dp1299
g4
I0
sg5
I1
ssVumen
p1300
(dp1301
g4
I2
sg5
I0
ssVsprach
p1302
(dp1303
g4
I1
sg5
I1
ssVkurzschlusses
p1304
(dp1305
g4
I0
sg5
I1
ssVzahlreiche
p1306
(dp1307
g4
I1
sg5
I2
ssVmehrere
p1308
(dp1309
g4
I1
sg5
I2
ssVsische
p1310
(dp1311
g4
I0
sg5
I2
ssVverursacht
p1312
(dp1313
g4
I1
sg5
I0
ssVabsicherung
p1314
(dp1315
g4
I1
sg5
I0
ssVarbeiten
p1316
(dp1317
g4
I1
sg5
I0
ssVjubil
p1318
(dp1319
g4
I1
sg5
I1
ssVnotfall
p1320
(dp1321
g4
I1
sg5
I0
ssVversionen
p1322
(dp1323
g4
I2
sg5
I0
ssVcorp
p1324
(dp1325
g4
I1
sg5
I0
ssVbewohner
p1326
(dp1327
g4
I0
sg5
I1
ssVgefunden
p1328
(dp1329
g4
I3
sg5
I1
ssVbahn
p1330
(dp1331
g4
I1
sg5
I0
ssVzur
p1332
(dp1333
g4
I11
sg5
I11
ssVdarunter
p1334
(dp1335
g4
I0
sg5
I3
ssVdsgvo
p1336
(dp1337
g4
I7
sg5
I0
ssVlaborant
p1338
(dp1339
g4
I0
sg5
I1
ssVzaghafter
p1340
(dp1341
g4
I0
sg5
I1
ssVbanken
p1342
(dp1343
g4
I2
sg5
I0
ssVtochter
p1344
(dp1345
g4
I2
sg5
I2
ssVvisa
p1346
(dp1347
g4
I0
sg5
I1
ssVspannendsten
p1348
(dp1349
g4
I0
sg5
I1
ssVtwitch
p1350
(dp1351
g4
I1
sg5
I0
ssVattacke
p1352
(dp1353
g4
I1
sg5
I0
ssVzum
p1354
(dp1355
g4
I16
sg5
I8
ssVcoins
p1356
(dp1357
g4
I1
sg5
I0
ssVaber
p1358
(dp1359
g4
I8
sg5
I9
ssVsystemen
p1360
(dp1361
g4
I1
sg5
I0
ssVunternehmens
p1362
(dp1363
g4
I1
sg5
I0
ssVdokumentation
p1364
(dp1365
g4
I0
sg5
I1
ssVanbieter
p1366
(dp1367
g4
I3
sg5
I0
ssVsinne
p1368
(dp1369
g4
I0
sg5
I1
ssVflugbetrieb
p1370
(dp1371
g4
I0
sg5
I1
ssVberreichen
p1372
(dp1373
g4
I0
sg5
I1
ssVaufwendigere
p1374
(dp1375
g4
I0
sg5
I1
ssVftige
p1376
(dp1377
g4
I0
sg5
I1
ssVduell
p1378
(dp1379
g4
I0
sg5
I1
ssVsupport
p1380
(dp1381
g4
I1
sg5
I0
ssVmeuthen
p1382
(dp1383
g4
I0
sg5
I1
ssVftigt
p1384
(dp1385
g4
I0
sg5
I2
ssVplatzten
p1386
(dp1387
g4
I1
sg5
I0
ssVbeziehung
p1388
(dp1389
g4
I0
sg5
I1
ssVwas
p1390
(dp1391
g4
I7
sg5
I2
ssVwar
p1392
(dp1393
g4
I4
sg5
I5
ssVnstig
p1394
(dp1395
g4
I1
sg5
I0
ssVansturm
p1396
(dp1397
g4
I0
sg5
I1
ssVbehandelt
p1398
(dp1399
g4
I1
sg5
I1
ssVspezial
p1400
(dp1401
g4
I1
sg5
I0
ssVmenschenverachtenden
p1402
(dp1403
g4
I0
sg5
I1
ssVitalien
p1404
(dp1405
g4
I0
sg5
I3
ssVzeigt
p1406
(dp1407
g4
I4
sg5
I2
ssVbereit
p1408
(dp1409
g4
I3
sg5
I0
ssVerdbeeren
p1410
(dp1411
g4
I0
sg5
I1
ssVzustimmung
p1412
(dp1413
g4
I1
sg5
I1
ssVnormalem
p1414
(dp1415
g4
I1
sg5
I0
ssVfors
p1416
(dp1417
g4
I1
sg5
I0
ssVinfos
p1418
(dp1419
g4
I1
sg5
I0
ssVoffen
p1420
(dp1421
g4
I0
sg5
I1
ssVindustriekonzernen
p1422
(dp1423
g4
I1
sg5
I0
ssVumst
p1424
(dp1425
g4
I1
sg5
I0
ssVgewalt
p1426
(dp1427
g4
I0
sg5
I1
ssVamerikanischen
p1428
(dp1429
g4
I0
sg5
I2
ssVmainzer
p1430
(dp1431
g4
I1
sg5
I0
ssVaufnehmen
p1432
(dp1433
g4
I0
sg5
I1
ssVradikaler
p1434
(dp1435
g4
I0
sg5
I1
ssVrgerlichen
p1436
(dp1437
g4
I0
sg5
I1
ssVteilweise
p1438
(dp1439
g4
I1
sg5
I0
ssVrechtsklick
p1440
(dp1441
g4
I1
sg5
I0
ssVjammertal
p1442
(dp1443
g4
I0
sg5
I1
ssVfundament
p1444
(dp1445
g4
I1
sg5
I0
ssVamerikanisches
p1446
(dp1447
g4
I1
sg5
I0
ssVtrauringe
p1448
(dp1449
g4
I1
sg5
I0
ssVdiagnose
p1450
(dp1451
g4
I1
sg5
I0
ssVmails
p1452
(dp1453
g4
I5
sg5
I0
ssVzudem
p1454
(dp1455
g4
I2
sg5
I2
ssVtesla
p1456
(dp1457
g4
I0
sg5
I1
ssVflugzeuge
p1458
(dp1459
g4
I0
sg5
I2
ssVkommunistischen
p1460
(dp1461
g4
I0
sg5
I1
ssVgelangen
p1462
(dp1463
g4
I1
sg5
I0
ssVinternetknoten
p1464
(dp1465
g4
I1
sg5
I0
ssVbundeskanzlerin
p1466
(dp1467
g4
I1
sg5
I0
ssVausdr
p1468
(dp1469
g4
I1
sg5
I0
ssVelon
p1470
(dp1471
g4
I0
sg5
I1
ssVfloating
p1472
(dp1473
g4
I1
sg5
I0
ssVcheck
p1474
(dp1475
g4
I1
sg5
I0
ssVregime
p1476
(dp1477
g4
I0
sg5
I1
ssVversuchslabor
p1478
(dp1479
g4
I1
sg5
I0
ssVverbesserung
p1480
(dp1481
g4
I1
sg5
I0
ssVnnlich
p1482
(dp1483
g4
I1
sg5
I0
ssVverletzte
p1484
(dp1485
g4
I0
sg5
I1
ssVbewusst
p1486
(dp1487
g4
I0
sg5
I1
ssVaxa
p1488
(dp1489
g4
I0
sg5
I1
ssVrepublic
p1490
(dp1491
g4
I1
sg5
I0
ssVangewiesen
p1492
(dp1493
g4
I0
sg5
I1
ssVtest
p1494
(dp1495
g4
I3
sg5
I1
ssVflottere
p1496
(dp1497
g4
I1
sg5
I0
ssVdienst
p1498
(dp1499
g4
I1
sg5
I0
ssVbundesamt
p1500
(dp1501
g4
I1
sg5
I2
ssVcortex
p1502
(dp1503
g4
I1
sg5
I0
ssVbeschleunigen
p1504
(dp1505
g4
I0
sg5
I1
ssVverstehen
p1506
(dp1507
g4
I1
sg5
I0
ssVuntersucht
p1508
(dp1509
g4
I1
sg5
I0
ssVamerikanische
p1510
(dp1511
g4
I0
sg5
I1
ssVlegte
p1512
(dp1513
g4
I1
sg5
I0
ssVdies
p1514
(dp1515
g4
I1
sg5
I0
ssVupdate
p1516
(dp1517
g4
I7
sg5
I0
ssVjeglicher
p1518
(dp1519
g4
I0
sg5
I1
ssVgemeinwohl
p1520
(dp1521
g4
I0
sg5
I1
ssVngste
p1522
(dp1523
g4
I1
sg5
I0
ssVscharf
p1524
(dp1525
g4
I0
sg5
I1
ssVkonservativen
p1526
(dp1527
g4
I0
sg5
I1
ssVwahlberechtigten
p1528
(dp1529
g4
I0
sg5
I1
ssVckisch
p1530
(dp1531
g4
I1
sg5
I0
ssVautoren
p1532
(dp1533
g4
I2
sg5
I0
ssVchtige
p1534
(dp1535
g4
I0
sg5
I2
ssVspuren
p1536
(dp1537
g4
I1
sg5
I0
ssVreiche
p1538
(dp1539
g4
I0
sg5
I1
ssVmpft
p1540
(dp1541
g4
I0
sg5
I2
ssVschritt
p1542
(dp1543
g4
I0
sg5
I2
ssVstick
p1544
(dp1545
g4
I1
sg5
I0
ssVentlassung
p1546
(dp1547
g4
I0
sg5
I1
ssVbegeistert
p1548
(dp1549
g4
I0
sg5
I1
ssVuschreduzierung
p1550
(dp1551
g4
I1
sg5
I0
ssVauszuf
p1552
(dp1553
g4
I1
sg5
I0
ssVangezeigt
p1554
(dp1555
g4
I1
sg5
I0
ssVgheit
p1556
(dp1557
g4
I1
sg5
I0
ssVthemen
p1558
(dp1559
g4
I0
sg5
I1
ssVrog
p1560
(dp1561
g4
I1
sg5
I0
ssVtsel
p1562
(dp1563
g4
I0
sg5
I1
ssValternativen
p1564
(dp1565
g4
I1
sg5
I0
ssVeinsetzen
p1566
(dp1567
g4
I1
sg5
I0
ssVsieht
p1568
(dp1569
g4
I1
sg5
I3
ssVselbst
p1570
(dp1571
g4
I3
sg5
I7
ssVmila
p1572
(dp1573
g4
I0
sg5
I1
ssVbeschwerde
p1574
(dp1575
g4
I0
sg5
I1
ssVauszuw
p1576
(dp1577
g4
I1
sg5
I0
ssVbegeistern
p1578
(dp1579
g4
I0
sg5
I1
ssVlle
p1580
(dp1581
g4
I1
sg5
I5
ssVmacht
p1582
(dp1583
g4
I3
sg5
I3
ssVmarke
p1584
(dp1585
g4
I0
sg5
I1
ssVnachspiel
p1586
(dp1587
g4
I0
sg5
I1
ssVhold
p1588
(dp1589
g4
I1
sg5
I0
ssVver
p1590
(dp1591
g4
I7
sg5
I0
ssVjahre
p1592
(dp1593
g4
I5
sg5
I3
ssVnachvollziehbar
p1594
(dp1595
g4
I1
sg5
I0
ssVtunesischen
p1596
(dp1597
g4
I0
sg5
I2
ssVflash
p1598
(dp1599
g4
I1
sg5
I0
ssVdeswegen
p1600
(dp1601
g4
I2
sg5
I0
ssVmarkt
p1602
(dp1603
g4
I1
sg5
I0
ssVkonzern
p1604
(dp1605
g4
I0
sg5
I3
ssVstaatlicher
p1606
(dp1607
g4
I1
sg5
I0
ssVbeschleunigt
p1608
(dp1609
g4
I0
sg5
I1
ssVterror
p1610
(dp1611
g4
I0
sg5
I1
ssVsoldaten
p1612
(dp1613
g4
I0
sg5
I1
ssVpflanzenschutzmittel
p1614
(dp1615
g4
I0
sg5
I1
ssVrsenkurs
p1616
(dp1617
g4
I0
sg5
I1
ssVvergammeln
p1618
(dp1619
g4
I0
sg5
I1
ssVsmartphone
p1620
(dp1621
g4
I3
sg5
I0
ssVkommandant
p1622
(dp1623
g4
I0
sg5
I1
ssVblase
p1624
(dp1625
g4
I0
sg5
I1
ssVihnen
p1626
(dp1627
g4
I3
sg5
I3
ssVniedergangs
p1628
(dp1629
g4
I0
sg5
I1
ssVhatten
p1630
(dp1631
g4
I0
sg5
I1
ssVspiegeln
p1632
(dp1633
g4
I0
sg5
I1
ssVtanks
p1634
(dp1635
g4
I1
sg5
I0
ssVcook
p1636
(dp1637
g4
I1
sg5
I0
ssVcool
p1638
(dp1639
g4
I0
sg5
I2
ssVhlen
p1640
(dp1641
g4
I3
sg5
I2
ssVselber
p1642
(dp1643
g4
I0
sg5
I1
ssVvorerst
p1644
(dp1645
g4
I1
sg5
I0
ssVdie
p1646
(dp1647
g4
I78
sg5
I73
ssVzerst
p1648
(dp1649
g4
I1
sg5
I1
ssVberpr
p1650
(dp1651
g4
I1
sg5
I0
ssVgut
p1652
(dp1653
g4
I3
sg5
I4
ssVteenager
p1654
(dp1655
g4
I0
sg5
I1
ssVsogar
p1656
(dp1657
g4
I3
sg5
I3
ssVbehaupten
p1658
(dp1659
g4
I0
sg5
I1
ssVgutscheincode
p1660
(dp1661
g4
I1
sg5
I0
ssVselbstheilung
p1662
(dp1663
g4
I1
sg5
I0
ssVrevolution
p1664
(dp1665
g4
I1
sg5
I0
ssVhtc
p1666
(dp1667
g4
I1
sg5
I0
ssVvilla
p1668
(dp1669
g4
I0
sg5
I1
ssVtrend
p1670
(dp1671
g4
I2
sg5
I0
ssVbestellen
p1672
(dp1673
g4
I1
sg5
I0
ssVattackierte
p1674
(dp1675
g4
I0
sg5
I1
ssVerfolgreiche
p1676
(dp1677
g4
I0
sg5
I1
ssVabmahn
p1678
(dp1679
g4
I1
sg5
I0
ssVdeutscher
p1680
(dp1681
g4
I0
sg5
I4
ssVtrotz
p1682
(dp1683
g4
I1
sg5
I0
ssVselbstbewusstsein
p1684
(dp1685
g4
I0
sg5
I1
ssVfrankfurter
p1686
(dp1687
g4
I1
sg5
I0
ssVfehler
p1688
(dp1689
g4
I1
sg5
I0
ssVverhalten
p1690
(dp1691
g4
I0
sg5
I1
ssVstaatswohl
p1692
(dp1693
g4
I1
sg5
I0
ssVzukunftstechnik
p1694
(dp1695
g4
I1
sg5
I0
ssVstreicht
p1696
(dp1697
g4
I0
sg5
I4
ssVsicherheitsupdates
p1698
(dp1699
g4
I1
sg5
I0
ssVselbstmordanschlag
p1700
(dp1701
g4
I0
sg5
I1
ssVssig
p1702
(dp1703
g4
I1
sg5
I0
ssVmitfliegen
p1704
(dp1705
g4
I1
sg5
I1
ssVerf
p1706
(dp1707
g4
I1
sg5
I1
ssVreisende
p1708
(dp1709
g4
I0
sg5
I2
ssVverschwinden
p1710
(dp1711
g4
I0
sg5
I1
ssVsaatgutunternehmens
p1712
(dp1713
g4
I0
sg5
I1
ssVgersts
p1714
(dp1715
g4
I0
sg5
I1
ssVrezepte
p1716
(dp1717
g4
I0
sg5
I1
ssVngsten
p1718
(dp1719
g4
I1
sg5
I3
ssVdeckglas
p1720
(dp1721
g4
I1
sg5
I0
ssVjury
p1722
(dp1723
g4
I1
sg5
I0
ssVbescheide
p1724
(dp1725
g4
I0
sg5
I1
ssVlange
p1726
(dp1727
g4
I1
sg5
I6
ssVfrench
p1728
(dp1729
g4
I0
sg5
I3
ssVnimmt
p1730
(dp1731
g4
I0
sg5
I2
ssVpause
p1732
(dp1733
g4
I0
sg5
I1
ssVoptimale
p1734
(dp1735
g4
I1
sg5
I0
ssVgalileo
p1736
(dp1737
g4
I1
sg5
I0
ssVdonnerstag
p1738
(dp1739
g4
I3
sg5
I0
ssVbuch
p1740
(dp1741
g4
I0
sg5
I1
ssVtantenball
p1742
(dp1743
g4
I0
sg5
I1
ssVinstitute
p1744
(dp1745
g4
I1
sg5
I0
ssVuschreduzierende
p1746
(dp1747
g4
I1
sg5
I0
ssValte
p1748
(dp1749
g4
I1
sg5
I2
ssVzahl
p1750
(dp1751
g4
I0
sg5
I1
ssVfranklin
p1752
(dp1753
g4
I1
sg5
I0
ssVrhein
p1754
(dp1755
g4
I0
sg5
I1
ssVriesen
p1756
(dp1757
g4
I1
sg5
I0
ssVbevor
p1758
(dp1759
g4
I1
sg5
I0
ssVhrder
p1760
(dp1761
g4
I1
sg5
I1
ssVnutzern
p1762
(dp1763
g4
I3
sg5
I0
ssVsselung
p1764
(dp1765
g4
I2
sg5
I0
ssVgewinnt
p1766
(dp1767
g4
I0
sg5
I3
ssVschien
p1768
(dp1769
g4
I1
sg5
I0
ssVmodus
p1770
(dp1771
g4
I1
sg5
I0
ssVausnutzen
p1772
(dp1773
g4
I2
sg5
I0
ssVfbi
p1774
(dp1775
g4
I2
sg5
I1
ssVthorsten
p1776
(dp1777
g4
I0
sg5
I1
ssVschaden
p1778
(dp1779
g4
I1
sg5
I2
ssVeste
p1780
(dp1781
g4
I0
sg5
I1
ssVraspberry
p1782
(dp1783
g4
I1
sg5
I0
ssVstimmung
p1784
(dp1785
g4
I0
sg5
I1
ssVdeaktivieren
p1786
(dp1787
g4
I1
sg5
I0
ssVgekauft
p1788
(dp1789
g4
I1
sg5
I0
ssVnominiert
p1790
(dp1791
g4
I0
sg5
I1
ssVausgetauscht
p1792
(dp1793
g4
I0
sg5
I1
ssVsteigt
p1794
(dp1795
g4
I2
sg5
I1
ssVangela
p1796
(dp1797
g4
I0
sg5
I4
ssVherpes
p1798
(dp1799
g4
I2
sg5
I0
ssVtanzfl
p1800
(dp1801
g4
I0
sg5
I1
ssVlive
p1802
(dp1803
g4
I5
sg5
I0
ssVregel
p1804
(dp1805
g4
I1
sg5
I0
ssViphone
p1806
(dp1807
g4
I3
sg5
I0
ssVhttps
p1808
(dp1809
g4
I1
sg5
I0
ssVdutzende
p1810
(dp1811
g4
I1
sg5
I3
ssVeinfacher
p1812
(dp1813
g4
I1
sg5
I0
ssVoffiziell
p1814
(dp1815
g4
I1
sg5
I0
ssVversucht
p1816
(dp1817
g4
I0
sg5
I1
ssVantwort
p1818
(dp1819
g4
I0
sg5
I2
ssVshare
p1820
(dp1821
g4
I1
sg5
I0
ssVgefahr
p1822
(dp1823
g4
I1
sg5
I0
ssVbayerische
p1824
(dp1825
g4
I0
sg5
I1
ssVunsere
p1826
(dp1827
g4
I1
sg5
I0
ssVeuphorisch
p1828
(dp1829
g4
I0
sg5
I1
ssVabgeurteilt
p1830
(dp1831
g4
I0
sg5
I1
ssVsieben
p1832
(dp1833
g4
I0
sg5
I1
ssVreligi
p1834
(dp1835
g4
I0
sg5
I1
ssVbefragung
p1836
(dp1837
g4
I0
sg5
I1
ssVslogan
p1838
(dp1839
g4
I1
sg5
I0
ssVabmahnungen
p1840
(dp1841
g4
I1
sg5
I0
ssVkatastrophenschutz
p1842
(dp1843
g4
I0
sg5
I1
ssVwebseiten
p1844
(dp1845
g4
I3
sg5
I0
ssVgebeten
p1846
(dp1847
g4
I0
sg5
I1
ssVgrenzenlos
p1848
(dp1849
g4
I0
sg5
I1
ssVstrafzahlungen
p1850
(dp1851
g4
I1
sg5
I0
ssVsuizidanschl
p1852
(dp1853
g4
I0
sg5
I1
ssVkonstituiert
p1854
(dp1855
g4
I1
sg5
I0
ssVihre
p1856
(dp1857
g4
I7
sg5
I8
ssVmittwoch
p1858
(dp1859
g4
I1
sg5
I0
ssVtrump
p1860
(dp1861
g4
I0
sg5
I10
ssVstream
p1862
(dp1863
g4
I2
sg5
I0
ssVnoch
p1864
(dp1865
g4
I6
sg5
I4
ssVchip
p1866
(dp1867
g4
I1
sg5
I0
ssVsonntagabend
p1868
(dp1869
g4
I0
sg5
I1
ssVmanuell
p1870
(dp1871
g4
I1
sg5
I0
ssVowncloud
p1872
(dp1873
g4
I1
sg5
I0
ssVgetauscht
p1874
(dp1875
g4
I1
sg5
I0
ssVschlie
p1876
(dp1877
g4
I5
sg5
I1
ssVspd
p1878
(dp1879
g4
I1
sg5
I1
ssVbesseres
p1880
(dp1881
g4
I1
sg5
I0
ssVkatholische
p1882
(dp1883
g4
I0
sg5
I1
ssVbezeichnet
p1884
(dp1885
g4
I0
sg5
I1
ssVjustizministerium
p1886
(dp1887
g4
I1
sg5
I0
ssVgesellen
p1888
(dp1889
g4
I0
sg5
I1
ssVhoffen
p1890
(dp1891
g4
I0
sg5
I1
ssVadobes
p1892
(dp1893
g4
I1
sg5
I0
ssVregelm
p1894
(dp1895
g4
I1
sg5
I0
ssVbesseren
p1896
(dp1897
g4
I1
sg5
I0
ssVallerdings
p1898
(dp1899
g4
I0
sg5
I1
ssVbetroffen
p1900
(dp1901
g4
I1
sg5
I2
ssVetlichen
p1902
(dp1903
g4
I0
sg5
I1
ssVschadsoftware
p1904
(dp1905
g4
I1
sg5
I0
ssVmac
p1906
(dp1907
g4
I3
sg5
I0
ssVlesen
p1908
(dp1909
g4
I1
sg5
I0
ssVdumm
p1910
(dp1911
g4
I0
sg5
I1
ssVembetty
p1912
(dp1913
g4
I1
sg5
I0
ssVmai
p1914
(dp1915
g4
I2
sg5
I0
ssVsatt
p1916
(dp1917
g4
I0
sg5
I1
ssVjugend
p1918
(dp1919
g4
I0
sg5
I1
ssVmal
p1920
(dp1921
g4
I2
sg5
I3
ssVtippen
p1922
(dp1923
g4
I1
sg5
I0
ssVvirenw
p1924
(dp1925
g4
I1
sg5
I0
ssVneuheiten
p1926
(dp1927
g4
I2
sg5
I0
ssVsofort
p1928
(dp1929
g4
I1
sg5
I0
ssVprivatsph
p1930
(dp1931
g4
I1
sg5
I0
ssVautos
p1932
(dp1933
g4
I0
sg5
I1
ssVwiegeln
p1934
(dp1935
g4
I0
sg5
I1
ssVngst
p1936
(dp1937
g4
I2
sg5
I0
ssVghz
p1938
(dp1939
g4
I2
sg5
I0
ssVhnlicher
p1940
(dp1941
g4
I0
sg5
I1
ssVdrohen
p1942
(dp1943
g4
I0
sg5
I1
ssVkurz
p1944
(dp1945
g4
I2
sg5
I6
ssVausgesetztes
p1946
(dp1947
g4
I0
sg5
I1
ssVkurs
p1948
(dp1949
g4
I1
sg5
I2
ssVsseldorf
p1950
(dp1951
g4
I1
sg5
I0
ssVwirksam
p1952
(dp1953
g4
I1
sg5
I0
ssVdenken
p1954
(dp1955
g4
I0
sg5
I1
ssVkommt
p1956
(dp1957
g4
I0
sg5
I2
ssVverrechnet
p1958
(dp1959
g4
I0
sg5
I1
ssVimmer
p1960
(dp1961
g4
I6
sg5
I7
ssVenigmail
p1962
(dp1963
g4
I2
sg5
I0
ssVrichtigen
p1964
(dp1965
g4
I1
sg5
I0
ssVleben
p1966
(dp1967
g4
I0
sg5
I3
ssVchte
p1968
(dp1969
g4
I2
sg5
I3
ssVstill
p1970
(dp1971
g4
I1
sg5
I0
ssVtte
p1972
(dp1973
g4
I0
sg5
I1
ssVmonitor
p1974
(dp1975
g4
I1
sg5
I0
ssVhohe
p1976
(dp1977
g4
I1
sg5
I1
ssVbeenden
p1978
(dp1979
g4
I0
sg5
I1
ssVorganisation
p1980
(dp1981
g4
I1
sg5
I0
ssVrichter
p1982
(dp1983
g4
I1
sg5
I0
ssVtorh
p1984
(dp1985
g4
I0
sg5
I1
ssVgen
p1986
(dp1987
g4
I0
sg5
I1
ssVentschuldigt
p1988
(dp1989
g4
I1
sg5
I0
ssVbeendet
p1990
(dp1991
g4
I1
sg5
I1
ssVsitzt
p1992
(dp1993
g4
I0
sg5
I1
ssVtauschen
p1994
(dp1995
g4
I0
sg5
I1
ssVmail
p1996
(dp1997
g4
I4
sg5
I0
ssVbunt
p1998
(dp1999
g4
I1
sg5
I0
ssVbeim
p2000
(dp2001
g4
I7
sg5
I4
ssVkiller
p2002
(dp2003
g4
I1
sg5
I0
ssVunzureichender
p2004
(dp2005
g4
I1
sg5
I0
ssVpendler
p2006
(dp2007
g4
I1
sg5
I0
ssVstrom
p2008
(dp2009
g4
I1
sg5
I0
ssVbekannte
p2010
(dp2011
g4
I3
sg5
I0
ssVssel
p2012
(dp2013
g4
I2
sg5
I0
ssVberuflich
p2014
(dp2015
g4
I1
sg5
I0
ssVerobern
p2016
(dp2017
g4
I1
sg5
I0
ssVtern
p2018
(dp2019
g4
I0
sg5
I1
ssVname
p2020
(dp2021
g4
I0
sg5
I1
ssVstahl
p2022
(dp2023
g4
I0
sg5
I1
ssVverbindet
p2024
(dp2025
g4
I0
sg5
I1
ssVfeldern
p2026
(dp2027
g4
I0
sg5
I1
ssVdeutschland
p2028
(dp2029
g4
I3
sg5
I5
ssVwertet
p2030
(dp2031
g4
I0
sg5
I1
ssVmagazin
p2032
(dp2033
g4
I1
sg5
I0
ssVfabian
p2034
(dp2035
g4
I1
sg5
I0
ssVjahrelange
p2036
(dp2037
g4
I0
sg5
I1
ssVgesellschaftlichen
p2038
(dp2039
g4
I1
sg5
I0
ssVrock
p2040
(dp2041
g4
I1
sg5
I0
ssVfernseher
p2042
(dp2043
g4
I2
sg5
I0
ssVdigung
p2044
(dp2045
g4
I0
sg5
I1
ssVspieler
p2046
(dp2047
g4
I0
sg5
I2
ssVkann
p2048
(dp2049
g4
I8
sg5
I7
ssVdomain
p2050
(dp2051
g4
I1
sg5
I0
ssVansicht
p2052
(dp2053
g4
I0
sg5
I1
ssVtechnikfestival
p2054
(dp2055
g4
I0
sg5
I1
ssVbesch
p2056
(dp2057
g4
I0
sg5
I2
ssVmonitore
p2058
(dp2059
g4
I2
sg5
I0
ssVbotnetz
p2060
(dp2061
g4
I3
sg5
I0
ssVtourismusboom
p2062
(dp2063
g4
I0
sg5
I1
ssVkreditsummen
p2064
(dp2065
g4
I1
sg5
I0
ssVpsychiater
p2066
(dp2067
g4
I0
sg5
I1
ssVwegen
p2068
(dp2069
g4
I3
sg5
I3
ssVabgespecktes
p2070
(dp2071
g4
I1
sg5
I0
ssVhrte
p2072
(dp2073
g4
I1
sg5
I0
ssVhacker
p2074
(dp2075
g4
I1
sg5
I0
ssVenergieverbrauch
p2076
(dp2077
g4
I1
sg5
I0
ssVeltern
p2078
(dp2079
g4
I0
sg5
I1
ssVbundesliga
p2080
(dp2081
g4
I0
sg5
I1
ssVnner
p2082
(dp2083
g4
I1
sg5
I2
ssVmpfen
p2084
(dp2085
g4
I0
sg5
I2
ssVnnen
p2086
(dp2087
g4
I6
sg5
I1
ssVinternet
p2088
(dp2089
g4
I5
sg5
I0
ssVsicherheitsl
p2090
(dp2091
g4
I5
sg5
I0
ssVcharlotte
p2092
(dp2093
g4
I0
sg5
I1
ssVtsommer
p2094
(dp2095
g4
I0
sg5
I1
ssVgesorgt
p2096
(dp2097
g4
I0
sg5
I1
ssVinternetseiten
p2098
(dp2099
g4
I1
sg5
I0
ssVaufschwung
p2100
(dp2101
g4
I0
sg5
I1
ssVmillion
p2102
(dp2103
g4
I2
sg5
I0
ssVkooperieren
p2104
(dp2105
g4
I0
sg5
I1
ssVauch
p2106
(dp2107
g4
I18
sg5
I22
ssVzuckerberg
p2108
(dp2109
g4
I3
sg5
I0
ssVmaschinen
p2110
(dp2111
g4
I2
sg5
I1
ssVmime
p2112
(dp2113
g4
I4
sg5
I0
ssVchen
p2114
(dp2115
g4
I0
sg5
I1
ssVangepeilten
p2116
(dp2117
g4
I0
sg5
I1
ssVkeinen
p2118
(dp2119
g4
I0
sg5
I1
ssVauflistet
p2120
(dp2121
g4
I1
sg5
I0
ssVunion
p2122
(dp2123
g4
I0
sg5
I1
ssVmirko
p2124
(dp2125
g4
I0
sg5
I1
ssVliefert
p2126
(dp2127
g4
I1
sg5
I1
ssVverbraucher
p2128
(dp2129
g4
I2
sg5
I0
ssVkostspieligen
p2130
(dp2131
g4
I1
sg5
I0
ssVverbots
p2132
(dp2133
g4
I1
sg5
I0
ssVjedoch
p2134
(dp2135
g4
I1
sg5
I0
ssVscheint
p2136
(dp2137
g4
I0
sg5
I1
ssVhervorgebracht
p2138
(dp2139
g4
I0
sg5
I1
ssVverlobungsrings
p2140
(dp2141
g4
I1
sg5
I0
ssVdesignverletzung
p2142
(dp2143
g4
I1
sg5
I0
ssVafrikas
p2144
(dp2145
g4
I0
sg5
I1
ssVuschung
p2146
(dp2147
g4
I0
sg5
I1
ssVrouter
p2148
(dp2149
g4
I3
sg5
I0
ssVrestliche
p2150
(dp2151
g4
I1
sg5
I0
ssVdebatte
p2152
(dp2153
g4
I1
sg5
I0
ssVliefern
p2154
(dp2155
g4
I1
sg5
I0
ssVtipps
p2156
(dp2157
g4
I1
sg5
I0
ssVhotels
p2158
(dp2159
g4
I0
sg5
I1
ssVwlan
p2160
(dp2161
g4
I1
sg5
I0
ssVunternehmer
p2162
(dp2163
g4
I1
sg5
I0
ssVpunkte
p2164
(dp2165
g4
I0
sg5
I1
ssVzweier
p2166
(dp2167
g4
I1
sg5
I0
ssVfraktionen
p2168
(dp2169
g4
I0
sg5
I1
ssVfast
p2170
(dp2171
g4
I0
sg5
I2
ssVons
p2172
(dp2173
g4
I1
sg5
I0
ssVring
p2174
(dp2175
g4
I1
sg5
I0
ssVopen
p2176
(dp2177
g4
I1
sg5
I4
ssVschafft
p2178
(dp2179
g4
I0
sg5
I2
ssVsanktionen
p2180
(dp2181
g4
I1
sg5
I1
ssVnutzer
p2182
(dp2183
g4
I6
sg5
I0
ssVgeschieht
p2184
(dp2185
g4
I0
sg5
I1
ssVnnten
p2186
(dp2187
g4
I4
sg5
I5
ssVchecken
p2188
(dp2189
g4
I1
sg5
I0
ssVnfte
p2190
(dp2191
g4
I0
sg5
I1
ssVherrscht
p2192
(dp2193
g4
I1
sg5
I0
ssVseite
p2194
(dp2195
g4
I0
sg5
I1
ssVhandelspolitik
p2196
(dp2197
g4
I0
sg5
I1
ssVnutzen
p2198
(dp2199
g4
I1
sg5
I0
ssVwilliams
p2200
(dp2201
g4
I0
sg5
I2
ssVnehmen
p2202
(dp2203
g4
I1
sg5
I2
ssVautomatisch
p2204
(dp2205
g4
I1
sg5
I0
ssVfordert
p2206
(dp2207
g4
I1
sg5
I4
ssVschlecht
p2208
(dp2209
g4
I1
sg5
I0
ssVgrund
p2210
(dp2211
g4
I2
sg5
I1
ssVfreien
p2212
(dp2213
g4
I1
sg5
I1
ssVunreif
p2214
(dp2215
g4
I0
sg5
I1
ssVdroht
p2216
(dp2217
g4
I1
sg5
I2
ssVbescheidenheit
p2218
(dp2219
g4
I0
sg5
I1
ssVndung
p2220
(dp2221
g4
I1
sg5
I1
ssVfreunden
p2222
(dp2223
g4
I1
sg5
I0
ssVkomplette
p2224
(dp2225
g4
I0
sg5
I1
ssVlich
p2226
(dp2227
g4
I0
sg5
I1
ssVeinzelg
p2228
(dp2229
g4
I0
sg5
I1
ssVmodellen
p2230
(dp2231
g4
I2
sg5
I0
ssVwert
p2232
(dp2233
g4
I0
sg5
I3
ssVunver
p2234
(dp2235
g4
I1
sg5
I0
ssVsechs
p2236
(dp2237
g4
I0
sg5
I1
ssVneckar
p2238
(dp2239
g4
I0
sg5
I1
ssVrper
p2240
(dp2241
g4
I2
sg5
I0
ssVapples
p2242
(dp2243
g4
I0
sg5
I1
ssVgeht
p2244
(dp2245
g4
I4
sg5
I4
ssVwerk
p2246
(dp2247
g4
I0
sg5
I1
ssVbestehen
p2248
(dp2249
g4
I0
sg5
I1
ssVnftigen
p2250
(dp2251
g4
I0
sg5
I1
ssVvernichtung
p2252
(dp2253
g4
I0
sg5
I1
ssVand
p2254
(dp2255
g4
I1
sg5
I0
ssVangek
p2256
(dp2257
g4
I2
sg5
I0
ssVanf
p2258
(dp2259
g4
I1
sg5
I0
ssVmittl
p2260
(dp2261
g4
I1
sg5
I0
ssValles
p2262
(dp2263
g4
I1
sg5
I4
ssVsan
p2264
(dp2265
g4
I0
sg5
I6
ssVbundestagswahl
p2266
(dp2267
g4
I0
sg5
I1
ssVpro
p2268
(dp2269
g4
I1
sg5
I0
ssVdass
p2270
(dp2271
g4
I2
sg5
I6
ssVanh
p2272
(dp2273
g4
I0
sg5
I1
ssVabgelehnte
p2274
(dp2275
g4
I0
sg5
I2
ssVanw
p2276
(dp2277
g4
I0
sg5
I2
ssVgeforce
p2278
(dp2279
g4
I2
sg5
I0
ssVcomputex
p2280
(dp2281
g4
I2
sg5
I0
ssVallem
p2282
(dp2283
g4
I0
sg5
I3
ssVparis
p2284
(dp2285
g4
I0
sg5
I2
ssVmittr
p2286
(dp2287
g4
I0
sg5
I1
ssVeinzigartigen
p2288
(dp2289
g4
I0
sg5
I2
ssVexplosionen
p2290
(dp2291
g4
I1
sg5
I0
ssVfreigestellt
p2292
(dp2293
g4
I0
sg5
I1
ssVzog
p2294
(dp2295
g4
I1
sg5
I0
ssVjahr
p2296
(dp2297
g4
I1
sg5
I4
ssVhinweise
p2298
(dp2299
g4
I1
sg5
I0
ssVnote
p2300
(dp2301
g4
I1
sg5
I0
ssVentschieden
p2302
(dp2303
g4
I1
sg5
I1
ssVgaskunde
p2304
(dp2305
g4
I1
sg5
I0
ssVmassa
p2306
(dp2307
g4
I1
sg5
I0
ssVonline
p2308
(dp2309
g4
I9
sg5
I0
ssVperformance
p2310
(dp2311
g4
I1
sg5
I0
ssVkuss
p2312
(dp2313
g4
I0
sg5
I1
ssVasylverfahren
p2314
(dp2315
g4
I0
sg5
I1
ssVbernd
p2316
(dp2317
g4
I0
sg5
I1
ssVbiohacker
p2318
(dp2319
g4
I2
sg5
I0
ssVplattform
p2320
(dp2321
g4
I1
sg5
I2
ssVverleiht
p2322
(dp2323
g4
I0
sg5
I1
ssVgiftpfeile
p2324
(dp2325
g4
I0
sg5
I1
ssVschwerpunkt
p2326
(dp2327
g4
I1
sg5
I0
ssVdiskussionen
p2328
(dp2329
g4
I1
sg5
I0
ssVbundesb
p2330
(dp2331
g4
I0
sg5
I1
ssVbundesl
p2332
(dp2333
g4
I0
sg5
I1
ssVanalyse
p2334
(dp2335
g4
I1
sg5
I0
ssVmachte
p2336
(dp2337
g4
I0
sg5
I1
ssVsehr
p2338
(dp2339
g4
I3
sg5
I2
ssVtalk
p2340
(dp2341
g4
I1
sg5
I0
ssVhrungen
p2342
(dp2343
g4
I1
sg5
I1
ssVnumers
p2344
(dp2345
g4
I1
sg5
I0
ssVerschien
p2346
(dp2347
g4
I0
sg5
I1
ssVchefin
p2348
(dp2349
g4
I1
sg5
I0
ssVparkplatz
p2350
(dp2351
g4
I0
sg5
I1
ssVhinken
p2352
(dp2353
g4
I1
sg5
I0
ssVdemonstrieren
p2354
(dp2355
g4
I0
sg5
I1
ssVimmobilienpreise
p2356
(dp2357
g4
I0
sg5
I1
ssVverbale
p2358
(dp2359
g4
I0
sg5
I1
ssVhochrangige
p2360
(dp2361
g4
I0
sg5
I1
ssVangst
p2362
(dp2363
g4
I1
sg5
I1
ssVniederl
p2364
(dp2365
g4
I1
sg5
I1
ssVrunde
p2366
(dp2367
g4
I0
sg5
I1
ssVsoho
p2368
(dp2369
g4
I1
sg5
I0
ssVborsche
p2370
(dp2371
g4
I0
sg5
I1
ssVlernen
p2372
(dp2373
g4
I1
sg5
I0
ssVnichtsk
p2374
(dp2375
g4
I0
sg5
I1
ssVwindenergie
p2376
(dp2377
g4
I0
sg5
I1
ssVhamburger
p2378
(dp2379
g4
I0
sg5
I4
ssVberhaupt
p2380
(dp2381
g4
I0
sg5
I1
ssVmoderator
p2382
(dp2383
g4
I0
sg5
I2
ssVbundesweit
p2384
(dp2385
g4
I0
sg5
I1
ssVmissst
p2386
(dp2387
g4
I0
sg5
I3
ssVbereits
p2388
(dp2389
g4
I1
sg5
I2
ssVtelemetrie
p2390
(dp2391
g4
I1
sg5
I0
ssVperfekt
p2392
(dp2393
g4
I0
sg5
I2
ssVflach
p2394
(dp2395
g4
I1
sg5
I0
ssVweitere
p2396
(dp2397
g4
I0
sg5
I1
ssVmpften
p2398
(dp2399
g4
I1
sg5
I0
ssVsetzt
p2400
(dp2401
g4
I4
sg5
I2
ssVsteinmeier
p2402
(dp2403
g4
I0
sg5
I1
ssVbringen
p2404
(dp2405
g4
I1
sg5
I0
ssVgert
p2406
(dp2407
g4
I0
sg5
I1
ssVchtlingskinder
p2408
(dp2409
g4
I1
sg5
I0
ssVbaltischen
p2410
(dp2411
g4
I0
sg5
I1
ssVunfallversicherung
p2412
(dp2413
g4
I0
sg5
I1
ssVmedienbericht
p2414
(dp2415
g4
I0
sg5
I1
ssVerleichtern
p2416
(dp2417
g4
I1
sg5
I0
ssVkluge
p2418
(dp2419
g4
I0
sg5
I1
ssVumfrage
p2420
(dp2421
g4
I1
sg5
I2
ssVger
p2422
(dp2423
g4
I5
sg5
I1
ssVsamstag
p2424
(dp2425
g4
I0
sg5
I1
ssVgew
p2426
(dp2427
g4
I1
sg5
I0
ssVget
p2428
(dp2429
g4
I0
sg5
I1
ssVsst
p2430
(dp2431
g4
I5
sg5
I2
ssVmerkel
p2432
(dp2433
g4
I0
sg5
I5
ssVrepublik
p2434
(dp2435
g4
I0
sg5
I1
ssVgerichtsurteil
p2436
(dp2437
g4
I1
sg5
I0
ssVisraels
p2438
(dp2439
g4
I0
sg5
I1
ssVgef
p2440
(dp2441
g4
I2
sg5
I4
ssVdasselbe
p2442
(dp2443
g4
I0
sg5
I1
ssVsse
p2444
(dp2445
g4
I0
sg5
I2
ssVversicherung
p2446
(dp2447
g4
I0
sg5
I1
ssVlahmgelegt
p2448
(dp2449
g4
I0
sg5
I2
ssVgeh
p2450
(dp2451
g4
I3
sg5
I2
ssVstaatsmacht
p2452
(dp2453
g4
I0
sg5
I1
ssVgem
p2454
(dp2455
g4
I0
sg5
I2
ssVgel
p2456
(dp2457
g4
I0
sg5
I2
ssVprima
p2458
(dp2459
g4
I1
sg5
I0
ssVhotelanbieter
p2460
(dp2461
g4
I0
sg5
I1
ssVgebrauchter
p2462
(dp2463
g4
I1
sg5
I0
ssVschwer
p2464
(dp2465
g4
I1
sg5
I1
ssVsollten
p2466
(dp2467
g4
I3
sg5
I0
ssVjahrzehnten
p2468
(dp2469
g4
I1
sg5
I0
ssVbrunschwig
p2470
(dp2471
g4
I1
sg5
I0
ssVmiteinander
p2472
(dp2473
g4
I0
sg5
I1
ssVkandidaten
p2474
(dp2475
g4
I0
sg5
I1
ssVkernen
p2476
(dp2477
g4
I1
sg5
I0
ssVunzureichend
p2478
(dp2479
g4
I1
sg5
I0
ssVangesto
p2480
(dp2481
g4
I0
sg5
I1
ssVautomatische
p2482
(dp2483
g4
I1
sg5
I0
ssVfreier
p2484
(dp2485
g4
I1
sg5
I0
ssVbauweise
p2486
(dp2487
g4
I1
sg5
I0
ssVvorlauf
p2488
(dp2489
g4
I1
sg5
I0
ssVleicht
p2490
(dp2491
g4
I0
sg5
I1
ssVliebsten
p2492
(dp2493
g4
I0
sg5
I1
ssVzukunft
p2494
(dp2495
g4
I1
sg5
I2
ssVsoftwarepaket
p2496
(dp2497
g4
I1
sg5
I0
ssVeinst
p2498
(dp2499
g4
I3
sg5
I0
ssVzoll
p2500
(dp2501
g4
I2
sg5
I0
ssVgestartet
p2502
(dp2503
g4
I1
sg5
I0
ssVnnte
p2504
(dp2505
g4
I3
sg5
I7
ssVdachte
p2506
(dp2507
g4
I1
sg5
I0
ssVunterst
p2508
(dp2509
g4
I1
sg5
I0
ssVsites
p2510
(dp2511
g4
I1
sg5
I0
ssVextremisten
p2512
(dp2513
g4
I0
sg5
I1
ssVwechsel
p2514
(dp2515
g4
I1
sg5
I0
ssVdeckt
p2516
(dp2517
g4
I1
sg5
I0
ssVabschiebungen
p2518
(dp2519
g4
I0
sg5
I1
ssVabtut
p2520
(dp2521
g4
I0
sg5
I1
ssVhoffnungstr
p2522
(dp2523
g4
I0
sg5
I1
ssVjederzeit
p2524
(dp2525
g4
I0
sg5
I1
ssVspart
p2526
(dp2527
g4
I1
sg5
I0
ssVsteuergeld
p2528
(dp2529
g4
I1
sg5
I0
ssVtut
p2530
(dp2531
g4
I0
sg5
I1
ssVrevolutionieren
p2532
(dp2533
g4
I1
sg5
I0
ssVklagt
p2534
(dp2535
g4
I1
sg5
I0
ssVtun
p2536
(dp2537
g4
I1
sg5
I1
ssVdringend
p2538
(dp2539
g4
I2
sg5
I1
ssVrspitze
p2540
(dp2541
g4
I0
sg5
I1
ssVparteien
p2542
(dp2543
g4
I0
sg5
I1
ssVklage
p2544
(dp2545
g4
I1
sg5
I0
ssVischen
p2546
(dp2547
g4
I0
sg5
I1
ssVteurer
p2548
(dp2549
g4
I1
sg5
I1
ssVinstallation
p2550
(dp2551
g4
I1
sg5
I0
ssVdarin
p2552
(dp2553
g4
I0
sg5
I2
ssVregion
p2554
(dp2555
g4
I0
sg5
I1
ssVstimme
p2556
(dp2557
g4
I0
sg5
I1
ssVhandelsgespr
p2558
(dp2559
g4
I0
sg5
I1
ssVschnell
p2560
(dp2561
g4
I0
sg5
I2
ssVverzichten
p2562
(dp2563
g4
I1
sg5
I0
ssVhauptstadt
p2564
(dp2565
g4
I0
sg5
I2
ssVausbleibt
p2566
(dp2567
g4
I1
sg5
I0
ssVdaten
p2568
(dp2569
g4
I5
sg5
I2
ssVkaputt
p2570
(dp2571
g4
I1
sg5
I0
ssVgespannt
p2572
(dp2573
g4
I1
sg5
I0
ssVeingebaut
p2574
(dp2575
g4
I1
sg5
I0
ssVatomare
p2576
(dp2577
g4
I1
sg5
I0
ssVperfekten
p2578
(dp2579
g4
I1
sg5
I0
ssVgedulden
p2580
(dp2581
g4
I1
sg5
I0
ssVwissenschaft
p2582
(dp2583
g4
I0
sg5
I1
ssVverantwortlichen
p2584
(dp2585
g4
I0
sg5
I1
ssVerdem
p2586
(dp2587
g4
I1
sg5
I0
ssVindividualistisch
p2588
(dp2589
g4
I0
sg5
I1
ssVstromkunden
p2590
(dp2591
g4
I1
sg5
I0
ssVoliver
p2592
(dp2593
g4
I1
sg5
I0
ssVerfreut
p2594
(dp2595
g4
I0
sg5
I1
ssVoder
p2596
(dp2597
g4
I6
sg5
I3
ssVmark
p2598
(dp2599
g4
I2
sg5
I0
ssVaufgrund
p2600
(dp2601
g4
I1
sg5
I0
ssVerlaubt
p2602
(dp2603
g4
I1
sg5
I1
ssVviele
p2604
(dp2605
g4
I8
sg5
I4
ssVvorbei
p2606
(dp2607
g4
I1
sg5
I1
ssVrepressionen
p2608
(dp2609
g4
I0
sg5
I1
ssVshopping
p2610
(dp2611
g4
I1
sg5
I0
ssVtigen
p2612
(dp2613
g4
I1
sg5
I0
ssVandrew
p2614
(dp2615
g4
I1
sg5
I0
ssVlaptops
p2616
(dp2617
g4
I1
sg5
I0
ssVigkeit
p2618
(dp2619
g4
I1
sg5
I0
ssVuntersch
p2620
(dp2621
g4
I0
sg5
I1
ssVbmw
p2622
(dp2623
g4
I1
sg5
I0
ssVtechnologiegr
p2624
(dp2625
g4
I1
sg5
I0
ssVbeanstandungen
p2626
(dp2627
g4
I1
sg5
I0
ssVvorlieb
p2628
(dp2629
g4
I0
sg5
I1
ssVhaufen
p2630
(dp2631
g4
I0
sg5
I1
ssVsteuer
p2632
(dp2633
g4
I1
sg5
I0
ssVstudienhaus
p2634
(dp2635
g4
I0
sg5
I1
ssVhdr
p2636
(dp2637
g4
I1
sg5
I0
ssVmitgelieferte
p2638
(dp2639
g4
I1
sg5
I0
ssVwebseite
p2640
(dp2641
g4
I1
sg5
I0
ssVbereitet
p2642
(dp2643
g4
I0
sg5
I1
ssVerfolg
p2644
(dp2645
g4
I0
sg5
I1
ssVshops
p2646
(dp2647
g4
I1
sg5
I0
ssVglaubt
p2648
(dp2649
g4
I0
sg5
I1
ssVein
p2650
(dp2651
g4
I32
sg5
I32
ssVferne
p2652
(dp2653
g4
I2
sg5
I0
ssVkampfpreisen
p2654
(dp2655
g4
I1
sg5
I0
ssVsuse
p2656
(dp2657
g4
I1
sg5
I0
ssVkostenlos
p2658
(dp2659
g4
I2
sg5
I0
ssVaufrufen
p2660
(dp2661
g4
I1
sg5
I0
ssVfreund
p2662
(dp2663
g4
I0
sg5
I3
ssVbeschlie
p2664
(dp2665
g4
I1
sg5
I0
ssVtaten
p2666
(dp2667
g4
I0
sg5
I1
ssVhriges
p2668
(dp2669
g4
I0
sg5
I1
ssVveranstaltung
p2670
(dp2671
g4
I0
sg5
I2
ssVwhois
p2672
(dp2673
g4
I1
sg5
I0
ssVmedia
p2674
(dp2675
g4
I1
sg5
I0
ssVltigen
p2676
(dp2677
g4
I0
sg5
I6
ssVzugleich
p2678
(dp2679
g4
I0
sg5
I1
ssVotto
p2680
(dp2681
g4
I0
sg5
I1
ssVbesitzt
p2682
(dp2683
g4
I0
sg5
I1
ssVreinkieken
p2684
(dp2685
g4
I0
sg5
I1
ssVstatus
p2686
(dp2687
g4
I1
sg5
I0
ssVsteuert
p2688
(dp2689
g4
I1
sg5
I0
ssVmontagmorgen
p2690
(dp2691
g4
I0
sg5
I1
ssVeleganza
p2692
(dp2693
g4
I0
sg5
I1
ssVkelvin
p2694
(dp2695
g4
I1
sg5
I0
ssVmodelle
p2696
(dp2697
g4
I2
sg5
I1
ssVdabei
p2698
(dp2699
g4
I8
sg5
I3
ssVgreift
p2700
(dp2701
g4
I1
sg5
I0
ssVgefordert
p2702
(dp2703
g4
I2
sg5
I0
ssVsteuern
p2704
(dp2705
g4
I1
sg5
I0
ssVzverev
p2706
(dp2707
g4
I0
sg5
I1
ssVberichtet
p2708
(dp2709
g4
I4
sg5
I0
ssVmarkus
p2710
(dp2711
g4
I0
sg5
I1
ssVstreit
p2712
(dp2713
g4
I0
sg5
I1
ssVaugenmerk
p2714
(dp2715
g4
I1
sg5
I0
ssVrden
p2716
(dp2717
g4
I2
sg5
I0
ssVmachen
p2718
(dp2719
g4
I1
sg5
I3
ssVinhalte
p2720
(dp2721
g4
I1
sg5
I0
ssVverstimmungen
p2722
(dp2723
g4
I0
sg5
I1
ssVdokumente
p2724
(dp2725
g4
I1
sg5
I0
ssVberichten
p2726
(dp2727
g4
I1
sg5
I1
ssVaufrollen
p2728
(dp2729
g4
I1
sg5
I0
ssVbetreiber
p2730
(dp2731
g4
I1
sg5
I0
ssVbeachten
p2732
(dp2733
g4
I2
sg5
I0
ssVergew
p2734
(dp2735
g4
I0
sg5
I1
ssVbietet
p2736
(dp2737
g4
I3
sg5
I0
ssVaufseher
p2738
(dp2739
g4
I1
sg5
I0
ssVaussehen
p2740
(dp2741
g4
I1
sg5
I0
ssVlegalisierten
p2742
(dp2743
g4
I1
sg5
I0
ssVstarke
p2744
(dp2745
g4
I1
sg5
I0
ssVverst
p2746
(dp2747
g4
I2
sg5
I0
ssVeurop
p2748
(dp2749
g4
I1
sg5
I3
ssVversp
p2750
(dp2751
g4
I2
sg5
I1
ssVdoyer
p2752
(dp2753
g4
I1
sg5
I0
ssViphones
p2754
(dp2755
g4
I1
sg5
I0
ssVverwalten
p2756
(dp2757
g4
I1
sg5
I0
ssVkonnten
p2758
(dp2759
g4
I1
sg5
I0
ssVstattdessen
p2760
(dp2761
g4
I1
sg5
I1
ssVbestimmten
p2762
(dp2763
g4
I2
sg5
I0
ssVjong
p2764
(dp2765
g4
I0
sg5
I4
ssVmarija
p2766
(dp2767
g4
I0
sg5
I1
ssVarmeespitze
p2768
(dp2769
g4
I0
sg5
I1
ssVneuen
p2770
(dp2771
g4
I7
sg5
I4
ssVamd
p2772
(dp2773
g4
I1
sg5
I0
ssVneuer
p2774
(dp2775
g4
I3
sg5
I3
ssVneues
p2776
(dp2777
g4
I4
sg5
I1
ssVinflation
p2778
(dp2779
g4
I0
sg5
I1
ssVgeschlossen
p2780
(dp2781
g4
I0
sg5
I1
ssVamp
p2782
(dp2783
g4
I2
sg5
I0
ssVgeschickt
p2784
(dp2785
g4
I1
sg5
I0
ssVdarf
p2786
(dp2787
g4
I1
sg5
I1
ssVkommentar
p2788
(dp2789
g4
I2
sg5
I0
ssVentwicklerplattform
p2790
(dp2791
g4
I1
sg5
I0
ssVintel
p2792
(dp2793
g4
I2
sg5
I0
ssVabkommen
p2794
(dp2795
g4
I0
sg5
I1
ssVerscheint
p2796
(dp2797
g4
I1
sg5
I0
ssVserver
p2798
(dp2799
g4
I3
sg5
I0
ssVkennen
p2800
(dp2801
g4
I1
sg5
I0
ssVcisco
p2802
(dp2803
g4
I1
sg5
I0
ssVtrampolin
p2804
(dp2805
g4
I0
sg5
I1
ssVtitan
p2806
(dp2807
g4
I0
sg5
I1
ssVfarbtemperatur
p2808
(dp2809
g4
I1
sg5
I0
ssVsollen
p2810
(dp2811
g4
I4
sg5
I4
ssVmanipulierte
p2812
(dp2813
g4
I1
sg5
I0
ssVfatwa
p2814
(dp2815
g4
I0
sg5
I1
ssVwahren
p2816
(dp2817
g4
I1
sg5
I0
ssVverschl
p2818
(dp2819
g4
I4
sg5
I0
ssVvirtuellen
p2820
(dp2821
g4
I1
sg5
I0
ssVbesser
p2822
(dp2823
g4
I2
sg5
I0
ssVkaiser
p2824
(dp2825
g4
I0
sg5
I1
ssVfreiheit
p2826
(dp2827
g4
I1
sg5
I0
ssVzugriff
p2828
(dp2829
g4
I1
sg5
I0
ssVdemokratische
p2830
(dp2831
g4
I0
sg5
I1
ssVddr
p2832
(dp2833
g4
I1
sg5
I0
ssVlotto
p2834
(dp2835
g4
I1
sg5
I0
ssVkamen
p2836
(dp2837
g4
I0
sg5
I1
ssVlegal
p2838
(dp2839
g4
I2
sg5
I0
ssVwortes
p2840
(dp2841
g4
I0
sg5
I1
ssVdurchf
p2842
(dp2843
g4
I1
sg5
I0
ssVversendeter
p2844
(dp2845
g4
I1
sg5
I0
ssVausnahmen
p2846
(dp2847
g4
I0
sg5
I1
ssVhielten
p2848
(dp2849
g4
I2
sg5
I0
ssVprovider
p2850
(dp2851
g4
I1
sg5
I0
ssVerfassen
p2852
(dp2853
g4
I1
sg5
I1
ssVklare
p2854
(dp2855
g4
I0
sg5
I1
ssVvalletta
p2856
(dp2857
g4
I0
sg5
I1
ssVbusiness
p2858
(dp2859
g4
I1
sg5
I0
ssVraus
p2860
(dp2861
g4
I0
sg5
I1
ssVfinanziert
p2862
(dp2863
g4
I1
sg5
I0
ssVseine
p2864
(dp2865
g4
I1
sg5
I6
ssVabzocke
p2866
(dp2867
g4
I1
sg5
I0
ssVschie
p2868
(dp2869
g4
I0
sg5
I1
ssVfragen
p2870
(dp2871
g4
I3
sg5
I1
ssVrmseestadion
p2872
(dp2873
g4
I0
sg5
I1
ssVngern
p2874
(dp2875
g4
I0
sg5
I1
ssVraum
p2876
(dp2877
g4
I0
sg5
I1
ssVhabe
p2878
(dp2879
g4
I0
sg5
I1
ssVkontinents
p2880
(dp2881
g4
I0
sg5
I1
ssVwurden
p2882
(dp2883
g4
I4
sg5
I3
ssVspannung
p2884
(dp2885
g4
I1
sg5
I0
ssVaccor
p2886
(dp2887
g4
I0
sg5
I1
ssVnafta
p2888
(dp2889
g4
I0
sg5
I1
ssVherangezogen
p2890
(dp2891
g4
I1
sg5
I0
ssVerneut
p2892
(dp2893
g4
I0
sg5
I2
ssVtucows
p2894
(dp2895
g4
I1
sg5
I0
ssVstand
p2896
(dp2897
g4
I1
sg5
I0
ssVkanzlerin
p2898
(dp2899
g4
I0
sg5
I3
ssVoutlook
p2900
(dp2901
g4
I1
sg5
I0
ssVcambridge
p2902
(dp2903
g4
I1
sg5
I0
ssVbester
p2904
(dp2905
g4
I0
sg5
I1
ssVvpnfilter
p2906
(dp2907
g4
I3
sg5
I0
ssVgemeinsam
p2908
(dp2909
g4
I0
sg5
I1
ssVimage
p2910
(dp2911
g4
I0
sg5
I1
ssVachtj
p2912
(dp2913
g4
I0
sg5
I1
ssVmikrofon
p2914
(dp2915
g4
I1
sg5
I0
ssVtiefstand
p2916
(dp2917
g4
I0
sg5
I1
ssVmenschenverstand
p2918
(dp2919
g4
I0
sg5
I1
ssVoperator
p2920
(dp2921
g4
I0
sg5
I1
ssVchtiger
p2922
(dp2923
g4
I0
sg5
I1
ssVluft
p2924
(dp2925
g4
I1
sg5
I0
ssVetablierten
p2926
(dp2927
g4
I1
sg5
I0
ssVvirenscanner
p2928
(dp2929
g4
I1
sg5
I0
ssVsorgte
p2930
(dp2931
g4
I0
sg5
I1
ssVneuerungen
p2932
(dp2933
g4
I1
sg5
I1
ssVdeutschlandweit
p2934
(dp2935
g4
I1
sg5
I0
ssVstark
p2936
(dp2937
g4
I1
sg5
I2
ssVbereitgestellt
p2938
(dp2939
g4
I1
sg5
I0
ssVchinesische
p2940
(dp2941
g4
I1
sg5
I0
ssVbundesgerichtshof
p2942
(dp2943
g4
I1
sg5
I0
ssVstars
p2944
(dp2945
g4
I1
sg5
I0
ssVleverkusener
p2946
(dp2947
g4
I0
sg5
I2
ssVsicherheitstool
p2948
(dp2949
g4
I1
sg5
I0
ssVhen
p2950
(dp2951
g4
I3
sg5
I0
ssVbundesnetzagentur
p2952
(dp2953
g4
I1
sg5
I0
ssVftigte
p2954
(dp2955
g4
I0
sg5
I1
ssVrechner
p2956
(dp2957
g4
I2
sg5
I0
ssVsoftwareentwicklungs
p2958
(dp2959
g4
I1
sg5
I0
ssVtraumata
p2960
(dp2961
g4
I0
sg5
I1
ssVshroud
p2962
(dp2963
g4
I1
sg5
I0
ssVnutzt
p2964
(dp2965
g4
I1
sg5
I0
ssVmich
p2966
(dp2967
g4
I0
sg5
I1
ssVentschuldigung
p2968
(dp2969
g4
I0
sg5
I1
ssVultrakonservative
p2970
(dp2971
g4
I0
sg5
I1
ssVertranken
p2972
(dp2973
g4
I0
sg5
I1
ssVkanzler
p2974
(dp2975
g4
I0
sg5
I1
ssVviertelfinale
p2976
(dp2977
g4
I0
sg5
I1
ssVverstand
p2978
(dp2979
g4
I0
sg5
I1
ssVlebenslange
p2980
(dp2981
g4
I0
sg5
I1
ssVtigte
p2982
(dp2983
g4
I0
sg5
I1
ssVaufsetzt
p2984
(dp2985
g4
I1
sg5
I0
ssVmanuel
p2986
(dp2987
g4
I0
sg5
I2
ssVinteressantesten
p2988
(dp2989
g4
I1
sg5
I0
ssVmobilrechner
p2990
(dp2991
g4
I1
sg5
I0
ssVengine
p2992
(dp2993
g4
I1
sg5
I0
ssVkeine
p2994
(dp2995
g4
I2
sg5
I1
ssVstrafverfolgung
p2996
(dp2997
g4
I0
sg5
I1
ssVglaubens
p2998
(dp2999
g4
I0
sg5
I1
ssVvideos
p3000
(dp3001
g4
I1
sg5
I0
ssVvors
p3002
(dp3003
g4
I1
sg5
I0
ssVvorr
p3004
(dp3005
g4
I1
sg5
I0
ssVnerv
p3006
(dp3007
g4
I0
sg5
I1
ssVlichem
p3008
(dp3009
g4
I0
sg5
I1
ssVkommendes
p3010
(dp3011
g4
I1
sg5
I0
ssVvielf
p3012
(dp3013
g4
I0
sg5
I1
ssVerkennbar
p3014
(dp3015
g4
I0
sg5
I1
ssVvorl
p3016
(dp3017
g4
I0
sg5
I1
ssVvorg
p3018
(dp3019
g4
I0
sg5
I2
ssVursache
p3020
(dp3021
g4
I0
sg5
I1
ssVigt
p3022
(dp3023
g4
I0
sg5
I1
ssVsorge
p3024
(dp3025
g4
I1
sg5
I1
ssVrichtung
p3026
(dp3027
g4
I1
sg5
I0
ssVbearbeiteten
p3028
(dp3029
g4
I1
sg5
I0
ssVrechtsstaat
p3030
(dp3031
g4
I1
sg5
I0
ssVworauf
p3032
(dp3033
g4
I1
sg5
I0
ssVbremer
p3034
(dp3035
g4
I0
sg5
I2
ssVige
p3036
(dp3037
g4
I1
sg5
I0
ssVheimt
p3038
(dp3039
g4
I1
sg5
I0
ssVtehersteller
p3040
(dp3041
g4
I1
sg5
I0
ssVvorsitzender
p3042
(dp3043
g4
I0
sg5
I1
ssVsidenten
p3044
(dp3045
g4
I0
sg5
I1
ssVwestfalens
p3046
(dp3047
g4
I0
sg5
I1
ssVinformieren
p3048
(dp3049
g4
I1
sg5
I0
ssVarbeitnehmer
p3050
(dp3051
g4
I1
sg5
I0
ssVausgebrochen
p3052
(dp3053
g4
I0
sg5
I1
ssVetwas
p3054
(dp3055
g4
I2
sg5
I2
ssVziel
p3056
(dp3057
g4
I0
sg5
I1
ssVrecht
p3058
(dp3059
g4
I0
sg5
I3
ssVbeispiellose
p3060
(dp3061
g4
I0
sg5
I1
ssVgipfel
p3062
(dp3063
g4
I1
sg5
I2
ssVleisten
p3064
(dp3065
g4
I0
sg5
I2
ssVsicherte
p3066
(dp3067
g4
I1
sg5
I0
ssVderzeit
p3068
(dp3069
g4
I0
sg5
I2
ssVnss
p3070
(dp3071
g4
I0
sg5
I1
ssVkommunen
p3072
(dp3073
g4
I1
sg5
I0
ssVdten
p3074
(dp3075
g4
I1
sg5
I1
ssVwebsites
p3076
(dp3077
g4
I1
sg5
I0
ssVanteile
p3078
(dp3079
g4
I0
sg5
I1
ssVausgesprochen
p3080
(dp3081
g4
I0
sg5
I1
ssVkonservativer
p3082
(dp3083
g4
I0
sg5
I1
ssVbelgischen
p3084
(dp3085
g4
I0
sg5
I1
ssVunser
p3086
(dp3087
g4
I0
sg5
I1
ssVssds
p3088
(dp3089
g4
I1
sg5
I0
ssVkanzleramt
p3090
(dp3091
g4
I0
sg5
I1
ssVkonzept
p3092
(dp3093
g4
I0
sg5
I1
ssVcpu
p3094
(dp3095
g4
I2
sg5
I0
ssVall
p3096
(dp3097
g4
I0
sg5
I1
ssVmesse
p3098
(dp3099
g4
I2
sg5
I0
ssVsch
p3100
(dp3101
g4
I4
sg5
I3
ssVafghanistans
p3102
(dp3103
g4
I0
sg5
I1
ssVamtsantritt
p3104
(dp3105
g4
I0
sg5
I2
ssVsicherheitsforscher
p3106
(dp3107
g4
I2
sg5
I0
ssVlack
p3108
(dp3109
g4
I1
sg5
I0
ssVdollar
p3110
(dp3111
g4
I2
sg5
I4
ssVbegriff
p3112
(dp3113
g4
I1
sg5
I0
ssVneigt
p3114
(dp3115
g4
I1
sg5
I0
ssVerfahren
p3116
(dp3117
g4
I2
sg5
I0
ssVgerst
p3118
(dp3119
g4
I0
sg5
I1
ssVhandball
p3120
(dp3121
g4
I0
sg5
I1
ssVals
p3122
(dp3123
g4
I11
sg5
I20
ssVschwul
p3124
(dp3125
g4
I0
sg5
I1
ssVverkauft
p3126
(dp3127
g4
I1
sg5
I0
ssVwaren
p3128
(dp3129
g4
I1
sg5
I2
ssVsidentschaftswahl
p3130
(dp3131
g4
I0
sg5
I1
ssVirak
p3132
(dp3133
g4
I0
sg5
I1
ssVdieser
p3134
(dp3135
g4
I2
sg5
I3
ssVaaron
p3136
(dp3137
g4
I2
sg5
I0
ssVtilgen
p3138
(dp3139
g4
I1
sg5
I0
ssVnord
p3140
(dp3141
g4
I1
sg5
I0
ssVgeschmacksmustern
p3142
(dp3143
g4
I1
sg5
I0
ssVlangfristiges
p3144
(dp3145
g4
I0
sg5
I1
ssVtzlich
p3146
(dp3147
g4
I1
sg5
I0
ssVrangenommen
p3148
(dp3149
g4
I1
sg5
I0
ssVverr
p3150
(dp3151
g4
I1
sg5
I0
ssVchtig
p3152
(dp3153
g4
I0
sg5
I1
ssVsehnsucht
p3154
(dp3155
g4
I0
sg5
I1
ssVwenige
p3156
(dp3157
g4
I2
sg5
I1
ssVverz
p3158
(dp3159
g4
I1
sg5
I0
ssVrichtig
p3160
(dp3161
g4
I1
sg5
I0
ssVppingen
p3162
(dp3163
g4
I0
sg5
I1
ssVnachwuchs
p3164
(dp3165
g4
I0
sg5
I1
ssVleistungsschutzrecht
p3166
(dp3167
g4
I1
sg5
I0
ssVicann
p3168
(dp3169
g4
I1
sg5
I0
ssVverd
p3170
(dp3171
g4
I0
sg5
I1
ssVverf
p3172
(dp3173
g4
I2
sg5
I0
ssVsony
p3174
(dp3175
g4
I1
sg5
I0
ssVllt
p3176
(dp3177
g4
I0
sg5
I1
ssVregierung
p3178
(dp3179
g4
I2
sg5
I7
ssVworden
p3180
(dp3181
g4
I1
sg5
I4
ssVaussperren
p3182
(dp3183
g4
I1
sg5
I1
ssVabhilfe
p3184
(dp3185
g4
I1
sg5
I0
ssVentwicklerkonferenz
p3186
(dp3187
g4
I0
sg5
I1
ssVzentrum
p3188
(dp3189
g4
I0
sg5
I1
ssVbegnadigen
p3190
(dp3191
g4
I0
sg5
I1
ssVenstelle
p3192
(dp3193
g4
I0
sg5
I1
ssVheise
p3194
(dp3195
g4
I5
sg5
I0
ssVstationiert
p3196
(dp3197
g4
I0
sg5
I1
ssVlaut
p3198
(dp3199
g4
I4
sg5
I5
ssVprogramme
p3200
(dp3201
g4
I3
sg5
I0
ssVkontrollkommission
p3202
(dp3203
g4
I1
sg5
I0
ssVten
p3204
(dp3205
g4
I3
sg5
I2
ssVinvestition
p3206
(dp3207
g4
I0
sg5
I1
ssVhlte
p3208
(dp3209
g4
I0
sg5
I1
ssVsync
p3210
(dp3211
g4
I1
sg5
I0
ssVdisplays
p3212
(dp3213
g4
I2
sg5
I0
ssVschwanger
p3214
(dp3215
g4
I0
sg5
I1
ssVter
p3216
(dp3217
g4
I2
sg5
I2
ssVgalt
p3218
(dp3219
g4
I0
sg5
I1
ssVtet
p3220
(dp3221
g4
I1
sg5
I1
ssVohne
p3222
(dp3223
g4
I4
sg5
I1
ssVrichard
p3224
(dp3225
g4
I0
sg5
I3
ssVmobilbrowser
p3226
(dp3227
g4
I1
sg5
I0
ssVabh
p3228
(dp3229
g4
I1
sg5
I0
ssVzweimal
p3230
(dp3231
g4
I0
sg5
I1
ssVhinaus
p3232
(dp3233
g4
I0
sg5
I1
ssVabr
p3234
(dp3235
g4
I1
sg5
I0
ssVversion
p3236
(dp3237
g4
I7
sg5
I0
ssVdesinfec
p3238
(dp3239
g4
I1
sg5
I0
ssVbestandteile
p3240
(dp3241
g4
I1
sg5
I0
ssVjede
p3242
(dp3243
g4
I3
sg5
I0
ssVzedenzf
p3244
(dp3245
g4
I1
sg5
I0
ssVordnung
p3246
(dp3247
g4
I0
sg5
I1
ssVvorneweg
p3248
(dp3249
g4
I1
sg5
I0
ssVfull
p3250
(dp3251
g4
I1
sg5
I0
ssViran
p3252
(dp3253
g4
I0
sg5
I1
ssVvertreter
p3254
(dp3255
g4
I0
sg5
I1
ssVtage
p3256
(dp3257
g4
I1
sg5
I0
ssVsituation
p3258
(dp3259
g4
I0
sg5
I1
ssVprognosen
p3260
(dp3261
g4
I1
sg5
I0
ssVtreffen
p3262
(dp3263
g4
I2
sg5
I7
ssVgigahertz
p3264
(dp3265
g4
I1
sg5
I0
ssVndigt
p3266
(dp3267
g4
I6
sg5
I2
ssVschnellere
p3268
(dp3269
g4
I1
sg5
I0
ssVstellt
p3270
(dp3271
g4
I1
sg5
I2
ssVschuss
p3272
(dp3273
g4
I0
sg5
I1
ssVbermittlung
p3274
(dp3275
g4
I1
sg5
I0
ssVangebot
p3276
(dp3277
g4
I1
sg5
I1
ssVexperience
p3278
(dp3279
g4
I1
sg5
I0
ssVknapp
p3280
(dp3281
g4
I1
sg5
I2
ssVkontrahentin
p3282
(dp3283
g4
I0
sg5
I1
ssVdurch
p3284
(dp3285
g4
I5
sg5
I1
ssVsocial
p3286
(dp3287
g4
I1
sg5
I0
ssVschott
p3288
(dp3289
g4
I1
sg5
I0
ssVsonntag
p3290
(dp3291
g4
I1
sg5
I2
ssVvorwurf
p3292
(dp3293
g4
I0
sg5
I1
ssVasylpolitik
p3294
(dp3295
g4
I0
sg5
I1
ssVschutzstatus
p3296
(dp3297
g4
I0
sg5
I1
ssVhrer
p3298
(dp3299
g4
I0
sg5
I2
ssVabwechslungsreich
p3300
(dp3301
g4
I0
sg5
I1
ssVerhalb
p3302
(dp3303
g4
I0
sg5
I1
ssVkapern
p3304
(dp3305
g4
I1
sg5
I0
ssVbeste
p3306
(dp3307
g4
I1
sg5
I2
ssVtreibt
p3308
(dp3309
g4
I2
sg5
I0
ssVsentiert
p3310
(dp3311
g4
I2
sg5
I1
ssVhren
p3312
(dp3313
g4
I3
sg5
I0
ssVaufw
p3314
(dp3315
g4
I1
sg5
I0
ssVspeichermodule
p3316
(dp3317
g4
I1
sg5
I0
ssVmitarbeitern
p3318
(dp3319
g4
I0
sg5
I1
ssVhrung
p3320
(dp3321
g4
I0
sg5
I3
ssVdarum
p3322
(dp3323
g4
I2
sg5
I1
ssVdieselbe
p3324
(dp3325
g4
I0
sg5
I1
ssVsondern
p3326
(dp3327
g4
I1
sg5
I1
ssVlander
p3328
(dp3329
g4
I1
sg5
I0
ssVlandes
p3330
(dp3331
g4
I0
sg5
I2
ssVandrzej
p3332
(dp3333
g4
I0
sg5
I1
ssVschlechtes
p3334
(dp3335
g4
I0
sg5
I1
ssVschlechter
p3336
(dp3337
g4
I1
sg5
I0
ssVrtig
p3338
(dp3339
g4
I1
sg5
I0
ssVlanden
p3340
(dp3341
g4
I0
sg5
I1
ssVuncool
p3342
(dp3343
g4
I0
sg5
I1
ssVchtlicher
p3344
(dp3345
g4
I0
sg5
I1
ssVzocken
p3346
(dp3347
g4
I1
sg5
I0
ssVklagen
p3348
(dp3349
g4
I1
sg5
I0
ssVklm
p3350
(dp3351
g4
I0
sg5
I1
ssVder
p3352
(dp3353
g4
I64
sg5
I83
ssVdes
p3354
(dp3355
g4
I21
sg5
I10
ssVpsychischen
p3356
(dp3357
g4
I0
sg5
I1
ssVdei
p3358
(dp3359
g4
I0
sg5
I1
ssVarchiv
p3360
(dp3361
g4
I0
sg5
I1
ssVgesucht
p3362
(dp3363
g4
I1
sg5
I1
ssVdem
p3364
(dp3365
g4
I15
sg5
I14
ssVden
p3366
(dp3367
g4
I34
sg5
I29
ssVdeb
p3368
(dp3369
g4
I0
sg5
I1
ssVeingeleitet
p3370
(dp3371
g4
I1
sg5
I0
ssVwieder
p3372
(dp3373
g4
I2
sg5
I9
ssVnachfrage
p3374
(dp3375
g4
I1
sg5
I0
ssVlindner
p3376
(dp3377
g4
I0
sg5
I1
ssVerforschte
p3378
(dp3379
g4
I0
sg5
I1
ssVjeweils
p3380
(dp3381
g4
I1
sg5
I0
ssVann
p3382
(dp3383
g4
I0
sg5
I1
ssVaufrei
p3384
(dp3385
g4
I0
sg5
I1
ssVmarche
p3386
(dp3387
g4
I0
sg5
I1
ssVmissbrauchs
p3388
(dp3389
g4
I0
sg5
I1
ssVwehrt
p3390
(dp3391
g4
I0
sg5
I1
ssVmehr
p3392
(dp3393
g4
I13
sg5
I11
ssVabrufen
p3394
(dp3395
g4
I1
sg5
I0
ssVruf
p3396
(dp3397
g4
I0
sg5
I1
ssVarbeitsmarkt
p3398
(dp3399
g4
I0
sg5
I1
ssVstromanbieter
p3400
(dp3401
g4
I1
sg5
I0
ssVschillernder
p3402
(dp3403
g4
I1
sg5
I0
ssVopfer
p3404
(dp3405
g4
I0
sg5
I2
ssVersetzen
p3406
(dp3407
g4
I0
sg5
I1
ssVmittelfeldspieler
p3408
(dp3409
g4
I0
sg5
I1
ssVchtlingsfeindliche
p3410
(dp3411
g4
I0
sg5
I1
ssVcsu
p3412
(dp3413
g4
I1
sg5
I0
ssVgekl
p3414
(dp3415
g4
I1
sg5
I0
ssVssen
p3416
(dp3417
g4
I5
sg5
I3
ssVplant
p3418
(dp3419
g4
I2
sg5
I1
ssVstaatstrojaner
p3420
(dp3421
g4
I1
sg5
I0
ssVheimweh
p3422
(dp3423
g4
I0
sg5
I1
ssVdeutlich
p3424
(dp3425
g4
I3
sg5
I2
ssVteils
p3426
(dp3427
g4
I0
sg5
I1
ssVtages
p3428
(dp3429
g4
I1
sg5
I0
ssVknappen
p3430
(dp3431
g4
I0
sg5
I1
ssVteilt
p3432
(dp3433
g4
I1
sg5
I0
ssVentwickler
p3434
(dp3435
g4
I2
sg5
I0
ssVfrance
p3436
(dp3437
g4
I0
sg5
I1
ssVbreitbart
p3438
(dp3439
g4
I0
sg5
I2
ssVnahezu
p3440
(dp3441
g4
I1
sg5
I0
ssVtagen
p3442
(dp3443
g4
I2
sg5
I1
ssVblickt
p3444
(dp3445
g4
I1
sg5
I0
ssVspitzen
p3446
(dp3447
g4
I1
sg5
I0
ssVmitgelesen
p3448
(dp3449
g4
I1
sg5
I0
ssVteile
p3450
(dp3451
g4
I1
sg5
I0
ssVversehen
p3452
(dp3453
g4
I1
sg5
I1
ssVkaufen
p3454
(dp3455
g4
I1
sg5
I0
ssVgithub
p3456
(dp3457
g4
I1
sg5
I1
ssVweltmeister
p3458
(dp3459
g4
I0
sg5
I1
ssVkein
p3460
(dp3461
g4
I1
sg5
I0
ssVleroy
p3462
(dp3463
g4
I0
sg5
I4
ssVeingesetzt
p3464
(dp3465
g4
I1
sg5
I0
ssVryzen
p3466
(dp3467
g4
I1
sg5
I0
ssVspectre
p3468
(dp3469
g4
I2
sg5
I0
ssVverteidigt
p3470
(dp3471
g4
I1
sg5
I0
ssVrderung
p3472
(dp3473
g4
I1
sg5
I0
ssVnvidia
p3474
(dp3475
g4
I2
sg5
I0
ssVdigitalen
p3476
(dp3477
g4
I2
sg5
I1
ssVgereicht
p3478
(dp3479
g4
I0
sg5
I1
ssVeinstufen
p3480
(dp3481
g4
I0
sg5
I1
ssVcken
p3482
(dp3483
g4
I9
sg5
I2
ssVemmanuel
p3484
(dp3485
g4
I0
sg5
I1
ssVbundesregierung
p3486
(dp3487
g4
I0
sg5
I2
ssVbaltikum
p3488
(dp3489
g4
I0
sg5
I1
ssVangaben
p3490
(dp3491
g4
I1
sg5
I0
ssVspeicher
p3492
(dp3493
g4
I1
sg5
I0
ssValten
p3494
(dp3495
g4
I3
sg5
I0
ssValle
p3496
(dp3497
g4
I4
sg5
I4
ssVsysteme
p3498
(dp3499
g4
I3
sg5
I0
ssVffentlichung
p3500
(dp3501
g4
I2
sg5
I0
ssVpcs
p3502
(dp3503
g4
I1
sg5
I0
ssVallm
p3504
(dp3505
g4
I0
sg5
I1
ssVgummersbach
p3506
(dp3507
g4
I0
sg5
I1
ssVpolnische
p3508
(dp3509
g4
I0
sg5
I1
ssVstaatschef
p3510
(dp3511
g4
I0
sg5
I1
ssVmeinung
p3512
(dp3513
g4
I1
sg5
I0
ssVvoran
p3514
(dp3515
g4
I0
sg5
I1
ssVfeuervulkan
p3516
(dp3517
g4
I0
sg5
I1
ssVenergien
p3518
(dp3519
g4
I0
sg5
I1
ssVurteilt
p3520
(dp3521
g4
I1
sg5
I0
ssVmusste
p3522
(dp3523
g4
I1
sg5
I0
ssVthan
p3524
(dp3525
g4
I1
sg5
I0
ssVanschlag
p3526
(dp3527
g4
I0
sg5
I1
ssVceo
p3528
(dp3529
g4
I1
sg5
I0
ssVbeschluss
p3530
(dp3531
g4
I1
sg5
I0
ssVwirkt
p3532
(dp3533
g4
I1
sg5
I0
ssVhafen
p3534
(dp3535
g4
I0
sg5
I1
ssVuhr
p3536
(dp3537
g4
I3
sg5
I1
ssVparty
p3538
(dp3539
g4
I0
sg5
I1
ssVentfernt
p3540
(dp3541
g4
I1
sg5
I0
ssVbelegt
p3542
(dp3543
g4
I0
sg5
I1
ssVablehnen
p3544
(dp3545
g4
I1
sg5
I0
ssVbigger
p3546
(dp3547
g4
I1
sg5
I0
ssVmarokko
p3548
(dp3549
g4
I0
sg5
I1
ssVnennt
p3550
(dp3551
g4
I0
sg5
I1
ssVtritt
p3552
(dp3553
g4
I0
sg5
I1
ssVmussten
p3554
(dp3555
g4
I1
sg5
I0
ssVhjahrs
p3556
(dp3557
g4
I1
sg5
I0
ssVdiagnosedaten
p3558
(dp3559
g4
I1
sg5
I0
ssVvertretern
p3560
(dp3561
g4
I1
sg5
I0
ssVuploads
p3562
(dp3563
g4
I1
sg5
I0
ssVrelativierung
p3564
(dp3565
g4
I0
sg5
I1
ssVvalentin
p3566
(dp3567
g4
I0
sg5
I1
ssVfehlerhaften
p3568
(dp3569
g4
I1
sg5
I0
ssVweek
p3570
(dp3571
g4
I1
sg5
I0
ssVinstitutionen
p3572
(dp3573
g4
I1
sg5
I0
ssVgeneration
p3574
(dp3575
g4
I0
sg5
I1
ssVidee
p3576
(dp3577
g4
I0
sg5
I1
ssVmoskau
p3578
(dp3579
g4
I0
sg5
I1
ssVschlussfolgerungen
p3580
(dp3581
g4
I1
sg5
I0
ssVtode
p3582
(dp3583
g4
I0
sg5
I1
ssVstandards
p3584
(dp3585
g4
I1
sg5
I0
ssVzittert
p3586
(dp3587
g4
I0
sg5
I1
ssVbedeuten
p3588
(dp3589
g4
I0
sg5
I1
ssVangriff
p3590
(dp3591
g4
I2
sg5
I1
ssVfts
p3592
(dp3593
g4
I0
sg5
I1
ssVvergessen
p3594
(dp3595
g4
I0
sg5
I1
ssVherausforderungen
p3596
(dp3597
g4
I1
sg5
I0
ssVerstmals
p3598
(dp3599
g4
I2
sg5
I1
ssVgesamten
p3600
(dp3601
g4
I0
sg5
I1
ssVgenutzter
p3602
(dp3603
g4
I0
sg5
I1
ssVeuropas
p3604
(dp3605
g4
I0
sg5
I2
ssVfte
p3606
(dp3607
g4
I1
sg5
I1
ssVkostete
p3608
(dp3609
g4
I0
sg5
I1
ssVvielerorts
p3610
(dp3611
g4
I1
sg5
I0
ssVbedeutet
p3612
(dp3613
g4
I1
sg5
I0
ssVbereich
p3614
(dp3615
g4
I1
sg5
I0
ssVbenjamin
p3616
(dp3617
g4
I0
sg5
I1
ssVfestgelegt
p3618
(dp3619
g4
I1
sg5
I0
ssVtimeline
p3620
(dp3621
g4
I1
sg5
I0
ssVbeweismittel
p3622
(dp3623
g4
I1
sg5
I0
ssVunislamisch
p3624
(dp3625
g4
I0
sg5
I1
ssVcookie
p3626
(dp3627
g4
I1
sg5
I0
ssVgericht
p3628
(dp3629
g4
I1
sg5
I2
ssVfremdeinwirkung
p3630
(dp3631
g4
I1
sg5
I0
ssVsaatgutgesch
p3632
(dp3633
g4
I0
sg5
I1
ssVeinzurichten
p3634
(dp3635
g4
I0
sg5
I1
ssVbekannter
p3636
(dp3637
g4
I1
sg5
I0
ssVnstlicher
p3638
(dp3639
g4
I1
sg5
I0
ssVinformationstechnik
p3640
(dp3641
g4
I1
sg5
I0
ssVhler
p3642
(dp3643
g4
I1
sg5
I0
ssVmuslimbr
p3644
(dp3645
g4
I0
sg5
I1
ssVcomputern
p3646
(dp3647
g4
I1
sg5
I0
ssVheftige
p3648
(dp3649
g4
I1
sg5
I0
ssVfallen
p3650
(dp3651
g4
I2
sg5
I0
ssVgaulands
p3652
(dp3653
g4
I0
sg5
I2
ssVbekommen
p3654
(dp3655
g4
I2
sg5
I0
ssVnstlichen
p3656
(dp3657
g4
I1
sg5
I0
ssVbernimmt
p3658
(dp3659
g4
I0
sg5
I2
ssVnach
p3660
(dp3661
g4
I11
sg5
I14
ssVhte
p3662
(dp3663
g4
I2
sg5
I0
ssVklingt
p3664
(dp3665
g4
I0
sg5
I1
ssVrbasis
p3666
(dp3667
g4
I0
sg5
I1
ssVgetestet
p3668
(dp3669
g4
I1
sg5
I1
ssVstarben
p3670
(dp3671
g4
I0
sg5
I2
ssVkanada
p3672
(dp3673
g4
I0
sg5
I1
ssVrebellisch
p3674
(dp3675
g4
I0
sg5
I1
ssVrechenleistung
p3676
(dp3677
g4
I1
sg5
I0
ssVdeutschen
p3678
(dp3679
g4
I4
sg5
I4
ssVhorst
p3680
(dp3681
g4
I0
sg5
I2
ssVfunktionieren
p3682
(dp3683
g4
I1
sg5
I0
ssVgpu
p3684
(dp3685
g4
I1
sg5
I0
ssValleine
p3686
(dp3687
g4
I0
sg5
I1
ssVeinfluss
p3688
(dp3689
g4
I1
sg5
I1
ssVmonaten
p3690
(dp3691
g4
I1
sg5
I0
ssVkongress
p3692
(dp3693
g4
I1
sg5
I2
ssVstickoxide
p3694
(dp3695
g4
I1
sg5
I0
ssVipads
p3696
(dp3697
g4
I1
sg5
I0
ssVschon
p3698
(dp3699
g4
I1
sg5
I5
ssVhollywood
p3700
(dp3701
g4
I0
sg5
I1
ssVberraschungen
p3702
(dp3703
g4
I0
sg5
I1
ssVmitarbeiter
p3704
(dp3705
g4
I0
sg5
I2
ssVking
p3706
(dp3707
g4
I1
sg5
I0
ssVkind
p3708
(dp3709
g4
I0
sg5
I1
ssVlegt
p3710
(dp3711
g4
I1
sg5
I2
ssVwindparks
p3712
(dp3713
g4
I0
sg5
I1
ssVreul
p3714
(dp3715
g4
I0
sg5
I1
ssVdann
p3716
(dp3717
g4
I4
sg5
I2
ssVpflichten
p3718
(dp3719
g4
I1
sg5
I0
ssVtliche
p3720
(dp3721
g4
I0
sg5
I1
ssVdank
p3722
(dp3723
g4
I1
sg5
I0
ssVgrenell
p3724
(dp3725
g4
I0
sg5
I3
ssVgehaltenes
p3726
(dp3727
g4
I1
sg5
I0
ssVlisten
p3728
(dp3729
g4
I1
sg5
I0
ssVfreut
p3730
(dp3731
g4
I0
sg5
I1
ssVfinanziell
p3732
(dp3733
g4
I1
sg5
I0
ssVprogrammiert
p3734
(dp3735
g4
I0
sg5
I1
ssVmotivation
p3736
(dp3737
g4
I1
sg5
I0
ssVverbrechen
p3738
(dp3739
g4
I0
sg5
I1
ssVepag
p3740
(dp3741
g4
I1
sg5
I0
ssVbundestrainer
p3742
(dp3743
g4
I0
sg5
I3
ssVungeheure
p3744
(dp3745
g4
I0
sg5
I1
ssVboote
p3746
(dp3747
g4
I0
sg5
I1
ssVsport
p3748
(dp3749
g4
I0
sg5
I1
ssVgeheimen
p3750
(dp3751
g4
I1
sg5
I0
ssVpreise
p3752
(dp3753
g4
I1
sg5
I1
ssVsteht
p3754
(dp3755
g4
I4
sg5
I3
ssVufer
p3756
(dp3757
g4
I2
sg5
I0
ssVradikalen
p3758
(dp3759
g4
I0
sg5
I2
ssVkartellamt
p3760
(dp3761
g4
I0
sg5
I1
ssVausgewechselt
p3762
(dp3763
g4
I0
sg5
I1
ssVinfrastruktur
p3764
(dp3765
g4
I1
sg5
I0
ssVungl
p3766
(dp3767
g4
I0
sg5
I1
ssVgeschichte
p3768
(dp3769
g4
I0
sg5
I4
ssVhandel
p3770
(dp3771
g4
I1
sg5
I0
ssVmexiko
p3772
(dp3773
g4
I0
sg5
I1
ssVbedrohen
p3774
(dp3775
g4
I1
sg5
I0
ssVmacs
p3776
(dp3777
g4
I1
sg5
I0
ssVserena
p3778
(dp3779
g4
I0
sg5
I2
ssVjahrzehnt
p3780
(dp3781
g4
I1
sg5
I0
ssVautobahnparkplatz
p3782
(dp3783
g4
I0
sg5
I1
ssVverrohten
p3784
(dp3785
g4
I0
sg5
I1
ssVkam
p3786
(dp3787
g4
I0
sg5
I1
ssVdkorea
p3788
(dp3789
g4
I0
sg5
I3
ssVplan
p3790
(dp3791
g4
I1
sg5
I1
ssVspitze
p3792
(dp3793
g4
I0
sg5
I1
ssVgilt
p3794
(dp3795
g4
I1
sg5
I2
ssVreden
p3796
(dp3797
g4
I1
sg5
I0
ssVabschieben
p3798
(dp3799
g4
I0
sg5
I3
ssVumfeld
p3800
(dp3801
g4
I0
sg5
I1
ssVerschreckende
p3802
(dp3803
g4
I1
sg5
I0
ssVwindows
p3804
(dp3805
g4
I13
sg5
I0
ssVtote
p3806
(dp3807
g4
I0
sg5
I1
ssVkontrollserver
p3808
(dp3809
g4
I1
sg5
I0
ssVverklagt
p3810
(dp3811
g4
I1
sg5
I0
ssVffentlicht
p3812
(dp3813
g4
I4
sg5
I0
ssVasus
p3814
(dp3815
g4
I2
sg5
I0
ssVmicrosoft
p3816
(dp3817
g4
I10
sg5
I1
ssVnahelegen
p3818
(dp3819
g4
I1
sg5
I0
ssVtechnik
p3820
(dp3821
g4
I3
sg5
I0
ssVaktivisten
p3822
(dp3823
g4
I1
sg5
I0
ssVwohnsitzwahl
p3824
(dp3825
g4
I0
sg5
I1
ssVgold
p3826
(dp3827
g4
I1
sg5
I0
ssVwetteifern
p3828
(dp3829
g4
I1
sg5
I0
ssVmacrons
p3830
(dp3831
g4
I0
sg5
I2
ssVglyphosat
p3832
(dp3833
g4
I0
sg5
I1
ssVcdu
p3834
(dp3835
g4
I0
sg5
I2
ssVrts
p3836
(dp3837
g4
I1
sg5
I0
ssVkonzentrieren
p3838
(dp3839
g4
I1
sg5
I0
ssVterrorbedrohung
p3840
(dp3841
g4
I0
sg5
I1
ssVfrisch
p3842
(dp3843
g4
I0
sg5
I1
ssVkonto
p3844
(dp3845
g4
I1
sg5
I0
ssVcopyright
p3846
(dp3847
g4
I1
sg5
I0
ssVarchitektur
p3848
(dp3849
g4
I1
sg5
I0
ssVselbstbehandlung
p3850
(dp3851
g4
I1
sg5
I0
ssVzweifach
p3852
(dp3853
g4
I1
sg5
I0
ssVinstallieren
p3854
(dp3855
g4
I2
sg5
I0
ssVumgekommen
p3856
(dp3857
g4
I0
sg5
I1
ssVhatte
p3858
(dp3859
g4
I3
sg5
I4
ssVszene
p3860
(dp3861
g4
I1
sg5
I0
ssVgenutzt
p3862
(dp3863
g4
I1
sg5
I0
ssVtouchscreen
p3864
(dp3865
g4
I1
sg5
I0
ssVgratis
p3866
(dp3867
g4
I1
sg5
I0
ssVheutigen
p3868
(dp3869
g4
I1
sg5
I0
ssVsommerloch
p3870
(dp3871
g4
I1
sg5
I0
ssVselbstmordanschl
p3872
(dp3873
g4
I0
sg5
I1
ssVopensuse
p3874
(dp3875
g4
I1
sg5
I0
ssVneuesten
p3876
(dp3877
g4
I2
sg5
I0
ssVhie
p3878
(dp3879
g4
I0
sg5
I1
ssVtitel
p3880
(dp3881
g4
I0
sg5
I1
ssVandersherum
p3882
(dp3883
g4
I0
sg5
I1
ssVrevolte
p3884
(dp3885
g4
I0
sg5
I1
ssVausdruck
p3886
(dp3887
g4
I0
sg5
I1
ssVhin
p3888
(dp3889
g4
I0
sg5
I1
ssValexander
p3890
(dp3891
g4
I0
sg5
I4
ssVdeutsches
p3892
(dp3893
g4
I0
sg5
I1
ssVenminister
p3894
(dp3895
g4
I0
sg5
I1
ssVgeplanten
p3896
(dp3897
g4
I0
sg5
I1
ssVbanking
p3898
(dp3899
g4
I1
sg5
I0
ssVdistanziert
p3900
(dp3901
g4
I0
sg5
I1
ssVgeld
p3902
(dp3903
g4
I5
sg5
I0
ssVdiplomaten
p3904
(dp3905
g4
I0
sg5
I2
ssVdouble
p3906
(dp3907
g4
I1
sg5
I0
ssVrechtens
p3908
(dp3909
g4
I0
sg5
I1
ssVgemischt
p3910
(dp3911
g4
I1
sg5
I0
ssVurteil
p3912
(dp3913
g4
I1
sg5
I0
ssVunfreundlichkeiten
p3914
(dp3915
g4
I0
sg5
I1
ssVschreibtisch
p3916
(dp3917
g4
I1
sg5
I0
ssVbarr
p3918
(dp3919
g4
I0
sg5
I1
ssVart
p3920
(dp3921
g4
I1
sg5
I2
ssVser
p3922
(dp3923
g4
I0
sg5
I1
ssVhersteller
p3924
(dp3925
g4
I3
sg5
I1
ssVchemiekonzern
p3926
(dp3927
g4
I0
sg5
I1
ssVsee
p3928
(dp3929
g4
I0
sg5
I1
ssVschluss
p3930
(dp3931
g4
I1
sg5
I0
ssVmigration
p3932
(dp3933
g4
I0
sg5
I3
ssVtreiber
p3934
(dp3935
g4
I1
sg5
I0
ssVsen
p3936
(dp3937
g4
I0
sg5
I1
ssVnachrichtendienste
p3938
(dp3939
g4
I1
sg5
I0
ssVmitgliedschaft
p3940
(dp3941
g4
I0
sg5
I1
ssVeinfach
p3942
(dp3943
g4
I2
sg5
I2
ssVanalog
p3944
(dp3945
g4
I1
sg5
I0
ssVfand
p3946
(dp3947
g4
I0
sg5
I1
ssVwirtschaft
p3948
(dp3949
g4
I1
sg5
I1
ssVrente
p3950
(dp3951
g4
I0
sg5
I1
ssVmobilisiert
p3952
(dp3953
g4
I0
sg5
I1
ssVvergiftete
p3954
(dp3955
g4
I0
sg5
I1
ssVfans
p3956
(dp3957
g4
I1
sg5
I1
ssVsonst
p3958
(dp3959
g4
I1
sg5
I1
ssVnutzerdateien
p3960
(dp3961
g4
I1
sg5
I0
ssVgepr
p3962
(dp3963
g4
I0
sg5
I1
ssVselbstmordbomber
p3964
(dp3965
g4
I0
sg5
I1
ssVsoll
p3966
(dp3967
g4
I10
sg5
I3
ssVeuropa
p3968
(dp3969
g4
I1
sg5
I7
ssVjeden
p3970
(dp3971
g4
I0
sg5
I2
ssVjedem
p3972
(dp3973
g4
I0
sg5
I1
ssVmissing
p3974
(dp3975
g4
I2
sg5
I0
ssVmachtlos
p3976
(dp3977
g4
I1
sg5
I0
ssVmohamed
p3978
(dp3979
g4
I0
sg5
I1
ssVargumentieren
p3980
(dp3981
g4
I0
sg5
I1
ssVopposition
p3982
(dp3983
g4
I0
sg5
I1
ssVfeuervulkans
p3984
(dp3985
g4
I0
sg5
I1
ssVjedes
p3986
(dp3987
g4
I0
sg5
I2
ssVjeder
p3988
(dp3989
g4
I1
sg5
I1
ssVgegeben
p3990
(dp3991
g4
I0
sg5
I2
ssVhacking
p3992
(dp3993
g4
I1
sg5
I0
ssVeuropaparlaments
p3994
(dp3995
g4
I1
sg5
I0
ssVndlichen
p3996
(dp3997
g4
I0
sg5
I1
ssVmega
p3998
(dp3999
g4
I1
sg5
I0
ssVrestaurant
p4000
(dp4001
g4
I0
sg5
I1
ssVgeschlichen
p4002
(dp4003
g4
I1
sg5
I0
ssVdadurch
p4004
(dp4005
g4
I1
sg5
I0
ssVgerne
p4006
(dp4007
g4
I0
sg5
I1
ssVprotokolle
p4008
(dp4009
g4
I0
sg5
I1
ssVhrigen
p4010
(dp4011
g4
I1
sg5
I0
ssVberwachen
p4012
(dp4013
g4
I2
sg5
I0
ssVleugnet
p4014
(dp4015
g4
I0
sg5
I1
ssVsimple
p4016
(dp4017
g4
I0
sg5
I1
ssVunterschiedliche
p4018
(dp4019
g4
I1
sg5
I0
ssVmedion
p4020
(dp4021
g4
I1
sg5
I0
ssVzwingt
p4022
(dp4023
g4
I1
sg5
I0
ssVupgrades
p4024
(dp4025
g4
I1
sg5
I0
ssVzusammen
p4026
(dp4027
g4
I0
sg5
I1
ssVauflistung
p4028
(dp4029
g4
I1
sg5
I0
ssVdesktop
p4030
(dp4031
g4
I2
sg5
I0
ssVcklich
p4032
(dp4033
g4
I1
sg5
I1
ssVllungen
p4034
(dp4035
g4
I1
sg5
I0
ssVhoffnung
p4036
(dp4037
g4
I1
sg5
I0
ssVwer
p4038
(dp4039
g4
I6
sg5
I6
ssVheiseshow
p4040
(dp4041
g4
I1
sg5
I0
ssVmitreden
p4042
(dp4043
g4
I0
sg5
I1
ssVffnet
p4044
(dp4045
g4
I0
sg5
I2
ssVarbeit
p4046
(dp4047
g4
I0
sg5
I1
ssVppchen
p4048
(dp4049
g4
I1
sg5
I0
ssVbeispiel
p4050
(dp4051
g4
I0
sg5
I1
ssVgegenstand
p4052
(dp4053
g4
I0
sg5
I1
ssVterrormiliz
p4054
(dp4055
g4
I0
sg5
I1
ssVebenfalls
p4056
(dp4057
g4
I1
sg5
I0
ssVsonden
p4058
(dp4059
g4
I1
sg5
I0
ssVschlimmsten
p4060
(dp4061
g4
I0
sg5
I1
ssVgrundverordnung
p4062
(dp4063
g4
I2
sg5
I0
ssVrepertoire
p4064
(dp4065
g4
I1
sg5
I0
ssVfung
p4066
(dp4067
g4
I1
sg5
I0
ssVkatherine
p4068
(dp4069
g4
I1
sg5
I0
ssVheute
p4070
(dp4071
g4
I4
sg5
I3
ssVtigt
p4072
(dp4073
g4
I1
sg5
I0
ssVaufgabenzettel
p4074
(dp4075
g4
I1
sg5
I0
ssVnrw
p4076
(dp4077
g4
I0
sg5
I2
ssVgab
p4078
(dp4079
g4
I1
sg5
I2
ssVrichten
p4080
(dp4081
g4
I1
sg5
I0
ssVflugstreichungen
p4082
(dp4083
g4
I0
sg5
I1
ssVbild
p4084
(dp4085
g4
I9
sg5
I1
ssVknoten
p4086
(dp4087
g4
I1
sg5
I0
ssVausgaben
p4088
(dp4089
g4
I1
sg5
I0
ssVfreihandelsabkommen
p4090
(dp4091
g4
I0
sg5
I1
ssVchten
p4092
(dp4093
g4
I2
sg5
I0
ssVchter
p4094
(dp4095
g4
I1
sg5
I1
ssVunausgewogenheit
p4096
(dp4097
g4
I1
sg5
I0
ssVnstliche
p4098
(dp4099
g4
I1
sg5
I0
ssVsicherer
p4100
(dp4101
g4
I0
sg5
I1
ssVaufnahmen
p4102
(dp4103
g4
I1
sg5
I0
ssVwollen
p4104
(dp4105
g4
I2
sg5
I3
ssVvon
p4106
(dp4107
g4
I39
sg5
I29
ssVunangefochten
p4108
(dp4109
g4
I0
sg5
I1
ssVtests
p4110
(dp4111
g4
I0
sg5
I1
ssVspezialisten
p4112
(dp4113
g4
I1
sg5
I0
ssVterminator
p4114
(dp4115
g4
I0
sg5
I1
ssVvor
p4116
(dp4117
g4
I12
sg5
I16
ssVzieht
p4118
(dp4119
g4
I1
sg5
I0
ssVmeltdown
p4120
(dp4121
g4
I1
sg5
I0
ssVtetes
p4122
(dp4123
g4
I1
sg5
I0
ssVeinger
p4124
(dp4125
g4
I0
sg5
I1
ssVkritiker
p4126
(dp4127
g4
I0
sg5
I1
ssVzehntausende
p4128
(dp4129
g4
I0
sg5
I1
ssVregen
p4130
(dp4131
g4
I1
sg5
I0
ssVkompakte
p4132
(dp4133
g4
I1
sg5
I0
ssVergibt
p4134
(dp4135
g4
I1
sg5
I0
ssVverlassen
p4136
(dp4137
g4
I0
sg5
I1
ssVgrundversorger
p4138
(dp4139
g4
I1
sg5
I0
ssVgasanbieter
p4140
(dp4141
g4
I1
sg5
I0
ssVbildschirms
p4142
(dp4143
g4
I1
sg5
I0
ssVwirtschaftliche
p4144
(dp4145
g4
I0
sg5
I1
ssVsah
p4146
(dp4147
g4
I0
sg5
I1
ssVglashersteller
p4148
(dp4149
g4
I1
sg5
I0
ssVzwar
p4150
(dp4151
g4
I2
sg5
I0
ssVrabatt
p4152
(dp4153
g4
I1
sg5
I0
ssVmigranten
p4154
(dp4155
g4
I0
sg5
I2
ssVheimcomputer
p4156
(dp4157
g4
I1
sg5
I0
ssVextrem
p4158
(dp4159
g4
I1
sg5
I0
ssVstack
p4160
(dp4161
g4
I1
sg5
I0
ssVeuro
p4162
(dp4163
g4
I7
sg5
I1
ssVberater
p4164
(dp4165
g4
I0
sg5
I1
ssVhinterher
p4166
(dp4167
g4
I1
sg5
I0
ssVgefragt
p4168
(dp4169
g4
I0
sg5
I1
ssVstellen
p4170
(dp4171
g4
I1
sg5
I0
ssVwohnung
p4172
(dp4173
g4
I1
sg5
I0
ssVspend
p4174
(dp4175
g4
I1
sg5
I0
ssVkurzportr
p4176
(dp4177
g4
I0
sg5
I1
ssVgerung
p4178
(dp4179
g4
I1
sg5
I0
ssVeigenen
p4180
(dp4181
g4
I1
sg5
I4
ssVgekommenen
p4182
(dp4183
g4
I1
sg5
I0
ssVstaatlich
p4184
(dp4185
g4
I1
sg5
I0
ssVeinstellen
p4186
(dp4187
g4
I1
sg5
I1
ssVvielleicht
p4188
(dp4189
g4
I1
sg5
I1
ssVfehlerhafte
p4190
(dp4191
g4
I1
sg5
I0
ssVrechtm
p4192
(dp4193
g4
I1
sg5
I0
ssValternative
p4194
(dp4195
g4
I1
sg5
I3
ssVeigenes
p4196
(dp4197
g4
I0
sg5
I1
ssVverbiegen
p4198
(dp4199
g4
I1
sg5
I0
ssVfinden
p4200
(dp4201
g4
I1
sg5
I1
ssVtablet
p4202
(dp4203
g4
I1
sg5
I0
ssVrechtskonservative
p4204
(dp4205
g4
I0
sg5
I1
ssVjupitermond
p4206
(dp4207
g4
I1
sg5
I0
ssVanwalt
p4208
(dp4209
g4
I1
sg5
I0
ssVsource
p4210
(dp4211
g4
I1
sg5
I1
ssVgema
p4212
(dp4213
g4
I0
sg5
I1
ssVleitw
p4214
(dp4215
g4
I0
sg5
I1
ssVsiebenj
p4216
(dp4217
g4
I0
sg5
I1
ssVvermutet
p4218
(dp4219
g4
I1
sg5
I0
ssVsollte
p4220
(dp4221
g4
I0
sg5
I2
ssVtransaktionaler
p4222
(dp4223
g4
I1
sg5
I0
ssVaktion
p4224
(dp4225
g4
I0
sg5
I1
ssVformat
p4226
(dp4227
g4
I1
sg5
I0
ssVfolgenden
p4228
(dp4229
g4
I1
sg5
I0
ssVerwartet
p4230
(dp4231
g4
I2
sg5
I0
ssVentscheidungen
p4232
(dp4233
g4
I1
sg5
I2
ssVvorgeschmack
p4234
(dp4235
g4
I1
sg5
I0
ssVlassen
p4236
(dp4237
g4
I2
sg5
I2
ssVmobilger
p4238
(dp4239
g4
I1
sg5
I0
ssVbit
p4240
(dp4241
g4
I1
sg5
I0
ssVverringern
p4242
(dp4243
g4
I0
sg5
I1
ssVbis
p4244
(dp4245
g4
I5
sg5
I1
ssVbesuchen
p4246
(dp4247
g4
I0
sg5
I1
ssVinfektion
p4248
(dp4249
g4
I1
sg5
I0
ssVerste
p4250
(dp4251
g4
I1
sg5
I4
ssVrechten
p4252
(dp4253
g4
I0
sg5
I1
ssVteil
p4254
(dp4255
g4
I0
sg5
I1
ssVbundesland
p4256
(dp4257
g4
I0
sg5
I1
ssVinformationen
p4258
(dp4259
g4
I2
sg5
I1
ssVangeblicher
p4260
(dp4261
g4
I1
sg5
I0
ssVzumutung
p4262
(dp4263
g4
I1
sg5
I0
ssVnotstandsgesetze
p4264
(dp4265
g4
I1
sg5
I0
ssVnutzers
p4266
(dp4267
g4
I2
sg5
I0
ssVtechnologie
p4268
(dp4269
g4
I1
sg5
I0
ssVbfduesseldorf
p4270
(dp4271
g4
I1
sg5
I0
ssVnames
p4272
(dp4273
g4
I1
sg5
I0
ssVorientiert
p4274
(dp4275
g4
I0
sg5
I1
ssVgoogle
p4276
(dp4277
g4
I4
sg5
I0
ssVzwangsupdates
p4278
(dp4279
g4
I1
sg5
I0
ssVeibesfeldts
p4280
(dp4281
g4
I0
sg5
I1
ssVsorgen
p4282
(dp4283
g4
I0
sg5
I1
ssVspring
p4284
(dp4285
g4
I2
sg5
I0
ssVstreaming
p4286
(dp4287
g4
I1
sg5
I0
ssVfestplatte
p4288
(dp4289
g4
I1
sg5
I0
ssVtotalausfall
p4290
(dp4291
g4
I1
sg5
I0
ssVhaltung
p4292
(dp4293
g4
I0
sg5
I1
ssVfestivals
p4294
(dp4295
g4
I1
sg5
I0
ssVtiefen
p4296
(dp4297
g4
I1
sg5
I0
ssVoffenbar
p4298
(dp4299
g4
I4
sg5
I7
ssVmontag
p4300
(dp4301
g4
I2
sg5
I1
ssVseehofer
p4302
(dp4303
g4
I0
sg5
I2
ssVper
p4304
(dp4305
g4
I2
sg5
I2
ssVsaal
p4306
(dp4307
g4
I0
sg5
I1
ssVkopfh
p4308
(dp4309
g4
I1
sg5
I0
ssVprof
p4310
(dp4311
g4
I1
sg5
I0
ssVvergl
p4312
(dp4313
g4
I1
sg5
I0
ssVarbeite
p4314
(dp4315
g4
I0
sg5
I1
ssVeating
p4316
(dp4317
g4
I0
sg5
I1
ssVobdachlosen
p4318
(dp4319
g4
I0
sg5
I1
ssVacht
p4320
(dp4321
g4
I0
sg5
I3
ssVweit
p4322
(dp4323
g4
I2
sg5
I2
ssVsten
p4324
(dp4325
g4
I0
sg5
I1
ssVdiskutieren
p4326
(dp4327
g4
I1
sg5
I0
ssVhrdet
p4328
(dp4329
g4
I1
sg5
I0
ssVtotalausf
p4330
(dp4331
g4
I0
sg5
I1
ssVweil
p4332
(dp4333
g4
I3
sg5
I2
ssVideologie
p4334
(dp4335
g4
I0
sg5
I1
ssVstet
p4336
(dp4337
g4
I1
sg5
I0
ssVbayern
p4338
(dp4339
g4
I2
sg5
I3
ssVuft
p4340
(dp4341
g4
I0
sg5
I1
ssVdashcam
p4342
(dp4343
g4
I1
sg5
I0
ssVche
p4344
(dp4345
g4
I0
sg5
I2
ssVich
p4346
(dp4347
g4
I0
sg5
I1
ssVnden
p4348
(dp4349
g4
I1
sg5
I1
ssVbgh
p4350
(dp4351
g4
I1
sg5
I0
ssVbeliebter
p4352
(dp4353
g4
I0
sg5
I1
ssVhochsicherheitsgef
p4354
(dp4355
g4
I0
sg5
I1
ssVlangsamer
p4356
(dp4357
g4
I1
sg5
I0
ssVdominiert
p4358
(dp4359
g4
I0
sg5
I1
ssVbeliebten
p4360
(dp4361
g4
I3
sg5
I0
ssVdialog
p4362
(dp4363
g4
I0
sg5
I1
ssVschaffen
p4364
(dp4365
g4
I2
sg5
I3
ssVnder
p4366
(dp4367
g4
I2
sg5
I3
ssVradikalisiert
p4368
(dp4369
g4
I0
sg5
I2
ssVeinzufahren
p4370
(dp4371
g4
I0
sg5
I1
ssVprozessorkern
p4372
(dp4373
g4
I1
sg5
I0
ssVtechie
p4374
(dp4375
g4
I2
sg5
I0
ssVgewesen
p4376
(dp4377
g4
I0
sg5
I1
ssVversteckte
p4378
(dp4379
g4
I1
sg5
I0
ssVdauert
p4380
(dp4381
g4
I0
sg5
I1
ssVstaaten
p4382
(dp4383
g4
I2
sg5
I2
ssVkonfrontation
p4384
(dp4385
g4
I0
sg5
I1
ssVverfahren
p4386
(dp4387
g4
I0
sg5
I1
ssVturnier
p4388
(dp4389
g4
I0
sg5
I1
ssVinstitut
p4390
(dp4391
g4
I0
sg5
I1
ssVplausibel
p4392
(dp4393
g4
I0
sg5
I1
ssVbesondere
p4394
(dp4395
g4
I1
sg5
I0
ssVwaffen
p4396
(dp4397
g4
I1
sg5
I0
ssVverlorenen
p4398
(dp4399
g4
I1
sg5
I0
ssVrichtige
p4400
(dp4401
g4
I2
sg5
I0
ssVchste
p4402
(dp4403
g4
I2
sg5
I0
ssVdevkit
p4404
(dp4405
g4
I1
sg5
I0
ssVsplittergruppe
p4406
(dp4407
g4
I0
sg5
I1
ssVbesonders
p4408
(dp4409
g4
I1
sg5
I2
ssVkonnte
p4410
(dp4411
g4
I1
sg5
I0
ssVbosse
p4412
(dp4413
g4
I1
sg5
I0
ssVgetto
p4414
(dp4415
g4
I0
sg5
I1
ssVverewigt
p4416
(dp4417
g4
I1
sg5
I0
ssVhelfen
p4418
(dp4419
g4
I1
sg5
I1
ssVumnisse
p4420
(dp4421
g4
I1
sg5
I0
ssVfalsches
p4422
(dp4423
g4
I1
sg5
I0
ssVgeltungstag
p4424
(dp4425
g4
I1
sg5
I0
ssVlink
p4426
(dp4427
g4
I2
sg5
I0
ssVwarschau
p4428
(dp4429
g4
I0
sg5
I1
ssVtageslicht
p4430
(dp4431
g4
I1
sg5
I0
ssVergebnis
p4432
(dp4433
g4
I1
sg5
I1
ssVinfo
p4434
(dp4435
g4
I1
sg5
I0
ssVabgrenzung
p4436
(dp4437
g4
I0
sg5
I1
ssVschwierig
p4438
(dp4439
g4
I0
sg5
I1
ssVzumindest
p4440
(dp4441
g4
I0
sg5
I2
ssVoptimismus
p4442
(dp4443
g4
I1
sg5
I0
ssVdatenschutzausschuss
p4444
(dp4445
g4
I1
sg5
I0
ssVnotwendige
p4446
(dp4447
g4
I1
sg5
I0
ssVfdp
p4448
(dp4449
g4
I0
sg5
I4
ssVpolitik
p4450
(dp4451
g4
I0
sg5
I1
ssVcix
p4452
(dp4453
g4
I2
sg5
I0
ssVvorschau
p4454
(dp4455
g4
I1
sg5
I0
ssVstromausfall
p4456
(dp4457
g4
I0
sg5
I5
ssVintegrieren
p4458
(dp4459
g4
I1
sg5
I0
ssVverwenden
p4460
(dp4461
g4
I1
sg5
I0
ssVlys
p4462
(dp4463
g4
I0
sg5
I1
ssVangelaufen
p4464
(dp4465
g4
I1
sg5
I2
ssVpreisanstiege
p4466
(dp4467
g4
I0
sg5
I1
ssVbelastungen
p4468
(dp4469
g4
I0
sg5
I1
ssVpopulismus
p4470
(dp4471
g4
I1
sg5
I0
ssVbeitrag
p4472
(dp4473
g4
I0
sg5
I1
ssVbetriebssystem
p4474
(dp4475
g4
I2
sg5
I0
ssVkombi
p4476
(dp4477
g4
I1
sg5
I0
ssVunterfangen
p4478
(dp4479
g4
I1
sg5
I0
ssVdemnach
p4480
(dp4481
g4
I2
sg5
I0
ssVbeide
p4482
(dp4483
g4
I0
sg5
I1
ssVwollte
p4484
(dp4485
g4
I0
sg5
I2
ssVsaatguthersteller
p4486
(dp4487
g4
I0
sg5
I2
ssVnas
p4488
(dp4489
g4
I3
sg5
I0
ssVnat
p4490
(dp4491
g4
I2
sg5
I0
ssVhaft
p4492
(dp4493
g4
I0
sg5
I2
ssVgro
p4494
(dp4495
g4
I5
sg5
I7
ssVviren
p4496
(dp4497
g4
I2
sg5
I0
ssVclean
p4498
(dp4499
g4
I0
sg5
I1
ssVwohn
p4500
(dp4501
g4
I0
sg5
I1
ssVwohl
p4502
(dp4503
g4
I1
sg5
I2
ssVenterprise
p4504
(dp4505
g4
I1
sg5
I0
ssVleno
p4506
(dp4507
g4
I0
sg5
I5
ssVradikale
p4508
(dp4509
g4
I1
sg5
I0
ssVmeint
p4510
(dp4511
g4
I2
sg5
I0
ssVpolitischen
p4512
(dp4513
g4
I0
sg5
I2
ssVffentlichkeit
p4514
(dp4515
g4
I0
sg5
I1
ssVprobleme
p4516
(dp4517
g4
I3
sg5
I1
ssVsachgrundlos
p4518
(dp4519
g4
I0
sg5
I2
ssVlangsam
p4520
(dp4521
g4
I0
sg5
I1
ssVfrankreichs
p4522
(dp4523
g4
I0
sg5
I2
ssVlang
p4524
(dp4525
g4
I2
sg5
I0
ssVknipp
p4526
(dp4527
g4
I0
sg5
I1
ssVland
p4528
(dp4529
g4
I0
sg5
I2
ssVbaschar
p4530
(dp4531
g4
I0
sg5
I1
ssVspezialit
p4532
(dp4533
g4
I0
sg5
I1
ssVtauscht
p4534
(dp4535
g4
I0
sg5
I3
ssVgehen
p4536
(dp4537
g4
I1
sg5
I1
ssVfrese
p4538
(dp4539
g4
I1
sg5
I1
ssVspezialstahl
p4540
(dp4541
g4
I0
sg5
I1
ssVgesamtnote
p4542
(dp4543
g4
I1
sg5
I0
ssVbenutzt
p4544
(dp4545
g4
I1
sg5
I0
ssVgewonnen
p4546
(dp4547
g4
I0
sg5
I1
ssVganz
p4548
(dp4549
g4
I4
sg5
I2
ssVverantwortlichkeiten
p4550
(dp4551
g4
I0
sg5
I1
ssVsetzte
p4552
(dp4553
g4
I1
sg5
I0
ssVbaby
p4554
(dp4555
g4
I0
sg5
I1
ssVfahrzeugdaten
p4556
(dp4557
g4
I1
sg5
I0
ssVmeinten
p4558
(dp4559
g4
I1
sg5
I0
ssVinnovativ
p4560
(dp4561
g4
I0
sg5
I1
ssVprivat
p4562
(dp4563
g4
I1
sg5
I0
ssVehemalige
p4564
(dp4565
g4
I1
sg5
I0
ssVausf
p4566
(dp4567
g4
I0
sg5
I1
ssVumzuschreiben
p4568
(dp4569
g4
I0
sg5
I1
ssVcksicht
p4570
(dp4571
g4
I0
sg5
I1
ssVvorbereitung
p4572
(dp4573
g4
I1
sg5
I0
ssVereignet
p4574
(dp4575
g4
I0
sg5
I1
ssVzensur
p4576
(dp4577
g4
I1
sg5
I0
ssVwarnung
p4578
(dp4579
g4
I1
sg5
I0
ssVtausende
p4580
(dp4581
g4
I0
sg5
I3
ssVnderung
p4582
(dp4583
g4
I1
sg5
I0
ssVrlicher
p4584
(dp4585
g4
I2
sg5
I1
ssVgeorgien
p4586
(dp4587
g4
I0
sg5
I1
ssVfreikommen
p4588
(dp4589
g4
I0
sg5
I1
ssVbotnetzes
p4590
(dp4591
g4
I1
sg5
I0
ssVfacebook
p4592
(dp4593
g4
I6
sg5
I0
ssVmobilit
p4594
(dp4595
g4
I0
sg5
I1
ssVassad
p4596
(dp4597
g4
I0
sg5
I1
ssVvergleichsportal
p4598
(dp4599
g4
I1
sg5
I0
ssVclement
p4600
(dp4601
g4
I1
sg5
I0
ssVgestern
p4602
(dp4603
g4
I0
sg5
I1
ssVkapazit
p4604
(dp4605
g4
I1
sg5
I0
ssVbeliebt
p4606
(dp4607
g4
I1
sg5
I0
ssVzeit
p4608
(dp4609
g4
I1
sg5
I2
ssVverteidigung
p4610
(dp4611
g4
I1
sg5
I0
ssVdeals
p4612
(dp4613
g4
I1
sg5
I1
ssVkontrolliert
p4614
(dp4615
g4
I1
sg5
I0
ssVakut
p4616
(dp4617
g4
I1
sg5
I0
ssVbestimmte
p4618
(dp4619
g4
I1
sg5
I0
ssVfinanzkrise
p4620
(dp4621
g4
I0
sg5
I1
ssVnotwendigen
p4622
(dp4623
g4
I0
sg5
I1
ssVvorgebrachten
p4624
(dp4625
g4
I1
sg5
I0
ssVvideo
p4626
(dp4627
g4
I1
sg5
I0
ssVdownload
p4628
(dp4629
g4
I3
sg5
I0
ssVanzapfen
p4630
(dp4631
g4
I1
sg5
I0
ssVdynamics
p4632
(dp4633
g4
I1
sg5
I0
ssVbeseitigt
p4634
(dp4635
g4
I0
sg5
I1
ssVbastelcomputers
p4636
(dp4637
g4
I1
sg5
I0
ssVglicher
p4638
(dp4639
g4
I0
sg5
I1
ssVindex
p4640
(dp4641
g4
I1
sg5
I0
ssVroboter
p4642
(dp4643
g4
I3
sg5
I0
ssVwechselt
p4644
(dp4645
g4
I1
sg5
I0
ssVfirma
p4646
(dp4647
g4
I1
sg5
I0
ssVpolen
p4648
(dp4649
g4
I0
sg5
I1
ssVdenkt
p4650
(dp4651
g4
I0
sg5
I1
ssVentwicklung
p4652
(dp4653
g4
I1
sg5
I0
ssVriesige
p4654
(dp4655
g4
I1
sg5
I0
ssVeinige
p4656
(dp4657
g4
I1
sg5
I0
ssVindem
p4658
(dp4659
g4
I0
sg5
I1
ssVmilliarden
p4660
(dp4661
g4
I0
sg5
I4
ssVkauft
p4662
(dp4663
g4
I0
sg5
I2
ssVjagen
p4664
(dp4665
g4
I1
sg5
I0
ssVnazis
p4666
(dp4667
g4
I0
sg5
I1
ssVwechseln
p4668
(dp4669
g4
I1
sg5
I0
ssVherstellern
p4670
(dp4671
g4
I1
sg5
I0
ssVchtlingsbundesamt
p4672
(dp4673
g4
I0
sg5
I1
ssVentgegen
p4674
(dp4675
g4
I0
sg5
I1
ssVfrankreich
p4676
(dp4677
g4
I1
sg5
I3
ssVkader
p4678
(dp4679
g4
I0
sg5
I6
ssVlen
p4680
(dp4681
g4
I1
sg5
I0
ssVmannschaft
p4682
(dp4683
g4
I0
sg5
I1
ssVsind
p4684
(dp4685
g4
I14
sg5
I12
ssVherstellers
p4686
(dp4687
g4
I1
sg5
I0
ssVausgabe
p4688
(dp4689
g4
I1
sg5
I0
ssVergeben
p4690
(dp4691
g4
I0
sg5
I1
ssVbekr
p4692
(dp4693
g4
I0
sg5
I1
ssVwasserfont
p4694
(dp4695
g4
I1
sg5
I0
ssVefail
p4696
(dp4697
g4
I5
sg5
I0
ssVgent
p4698
(dp4699
g4
I0
sg5
I1
ssVmitl
p4700
(dp4701
g4
I0
sg5
I1
ssVeinzigartige
p4702
(dp4703
g4
I0
sg5
I1
ssVersten
p4704
(dp4705
g4
I4
sg5
I2
ssVrde
p4706
(dp4707
g4
I2
sg5
I3
ssVknirschen
p4708
(dp4709
g4
I0
sg5
I1
ssVerster
p4710
(dp4711
g4
I1
sg5
I1
ssVkulturhauptstadt
p4712
(dp4713
g4
I0
sg5
I1
ssVausgleichszahlungen
p4714
(dp4715
g4
I0
sg5
I1
ssVwie
p4716
(dp4717
g4
I19
sg5
I8
ssVfirefox
p4718
(dp4719
g4
I1
sg5
I0
ssVapple
p4720
(dp4721
g4
I7
sg5
I1
ssVauswahl
p4722
(dp4723
g4
I1
sg5
I0
ssVkleinstaaterei
p4724
(dp4725
g4
I0
sg5
I1
ssVnamen
p4726
(dp4727
g4
I0
sg5
I3
ssVvoll
p4728
(dp4729
g4
I1
sg5
I0
ssVtalos
p4730
(dp4731
g4
I1
sg5
I0
ssVwir
p4732
(dp4733
g4
I4
sg5
I2
ssVrede
p4734
(dp4735
g4
I0
sg5
I1
ssVteure
p4736
(dp4737
g4
I2
sg5
I0
ssVweiterbildung
p4738
(dp4739
g4
I1
sg5
I0
ssVangreifbar
p4740
(dp4741
g4
I1
sg5
I0
ssVfroh
p4742
(dp4743
g4
I0
sg5
I1
ssVuse
p4744
(dp4745
g4
I1
sg5
I0
ssVusb
p4746
(dp4747
g4
I1
sg5
I0
ssVusa
p4748
(dp4749
g4
I1
sg5
I4
ssVchefs
p4750
(dp4751
g4
I0
sg5
I1
ssVbesten
p4752
(dp4753
g4
I2
sg5
I1
ssVumgesetzt
p4754
(dp4755
g4
I1
sg5
I0
ssVkunde
p4756
(dp4757
g4
I1
sg5
I1
ssVchatschanow
p4758
(dp4759
g4
I0
sg5
I1
ssVverfeinerte
p4760
(dp4761
g4
I1
sg5
I0
ssVjonathan
p4762
(dp4763
g4
I0
sg5
I1
ssVgeschafft
p4764
(dp4765
g4
I0
sg5
I1
ssVabend
p4766
(dp4767
g4
I1
sg5
I2
ssVkonkurrent
p4768
(dp4769
g4
I0
sg5
I1
ssVstarten
p4770
(dp4771
g4
I0
sg5
I1
ssVinnenminister
p4772
(dp4773
g4
I0
sg5
I5
ssVthema
p4774
(dp4775
g4
I1
sg5
I1
ssVpersonell
p4776
(dp4777
g4
I0
sg5
I1
ssVkehrt
p4778
(dp4779
g4
I1
sg5
I0
ssVkiosk
p4780
(dp4781
g4
I1
sg5
I0
ssVeinstellung
p4782
(dp4783
g4
I1
sg5
I0
ssVeibl
p4784
(dp4785
g4
I0
sg5
I1
ssVmilliarde
p4786
(dp4787
g4
I1
sg5
I0
ssVckzugehen
p4788
(dp4789
g4
I0
sg5
I1
ssVagent
p4790
(dp4791
g4
I0
sg5
I1
ssVeigenregie
p4792
(dp4793
g4
I0
sg5
I1
ssVanbietern
p4794
(dp4795
g4
I1
sg5
I0
ssVstartet
p4796
(dp4797
g4
I2
sg5
I0
ssVbetroffenen
p4798
(dp4799
g4
I0
sg5
I1
ssVfan
p4800
(dp4801
g4
I1
sg5
I1
ssVlinke
p4802
(dp4803
g4
I0
sg5
I1
ssVglich
p4804
(dp4805
g4
I2
sg5
I2
ssVfunktionsupdate
p4806
(dp4807
g4
I1
sg5
I0
ssVclients
p4808
(dp4809
g4
I1
sg5
I0
ssVlokale
p4810
(dp4811
g4
I1
sg5
I0
ssVsicherheit
p4812
(dp4813
g4
I2
sg5
I0
ssVwerbeanzeigen
p4814
(dp4815
g4
I1
sg5
I0
ssVhrend
p4816
(dp4817
g4
I2
sg5
I0
ssVkreditunternehmen
p4818
(dp4819
g4
I0
sg5
I1
ssVstreamer
p4820
(dp4821
g4
I1
sg5
I0
ssVfeiert
p4822
(dp4823
g4
I1
sg5
I1
ssVtap
p4824
(dp4825
g4
I1
sg5
I0
ssVlinks
p4826
(dp4827
g4
I1
sg5
I0
ssVpocket
p4828
(dp4829
g4
I0
sg5
I1
ssVhigh
p4830
(dp4831
g4
I1
sg5
I0
ssVtag
p4832
(dp4833
g4
I2
sg5
I0
ssVzwischen
p4834
(dp4835
g4
I2
sg5
I5
ssVrigkeit
p4836
(dp4837
g4
I0
sg5
I1
ssVspa
p4838
(dp4839
g4
I2
sg5
I0
ssVschneller
p4840
(dp4841
g4
I1
sg5
I1
ssVhistorischen
p4842
(dp4843
g4
I0
sg5
I1
ssVtah
p4844
(dp4845
g4
I0
sg5
I5
ssVhige
p4846
(dp4847
g4
I1
sg5
I0
ssVckkehr
p4848
(dp4849
g4
I0
sg5
I1
ssVsalvini
p4850
(dp4851
g4
I0
sg5
I1
ssVstreichung
p4852
(dp4853
g4
I0
sg5
I1
ssVmalware
p4854
(dp4855
g4
I2
sg5
I0
ssVrechtsschutz
p4856
(dp4857
g4
I1
sg5
I0
ssVverharmlosung
p4858
(dp4859
g4
I0
sg5
I1
ssVjustiz
p4860
(dp4861
g4
I0
sg5
I2
ssVafd
p4862
(dp4863
g4
I0
sg5
I8
ssVempfehlen
p4864
(dp4865
g4
I1
sg5
I0
ssVaff
p4866
(dp4867
g4
I0
sg5
I6
ssVeffail
p4868
(dp4869
g4
I1
sg5
I0
ssVckliche
p4870
(dp4871
g4
I1
sg5
I0
ssVangreifer
p4872
(dp4873
g4
I5
sg5
I0
ssVkonomin
p4874
(dp4875
g4
I0
sg5
I1
ssVintelligenz
p4876
(dp4877
g4
I2
sg5
I0
ssVsisch
p4878
(dp4879
g4
I0
sg5
I1
ssVwissenschaftler
p4880
(dp4881
g4
I1
sg5
I0
ssVsie
p4882
(dp4883
g4
I29
sg5
I14
ssVluke
p4884
(dp4885
g4
I1
sg5
I0
ssVdrastisch
p4886
(dp4887
g4
I1
sg5
I0
ssVredakteur
p4888
(dp4889
g4
I1
sg5
I0
ssVffentlich
p4890
(dp4891
g4
I0
sg5
I1
ssVziemlich
p4892
(dp4893
g4
I1
sg5
I0
ssVhumanit
p4894
(dp4895
g4
I1
sg5
I0
ssVklar
p4896
(dp4897
g4
I3
sg5
I0
ssVmpfern
p4898
(dp4899
g4
I0
sg5
I1
ssVhrern
p4900
(dp4901
g4
I0
sg5
I1
ssViren
p4902
(dp4903
g4
I0
sg5
I1
ssVpolitisch
p4904
(dp4905
g4
I0
sg5
I1
ssVnotebook
p4906
(dp4907
g4
I2
sg5
I0
ssVmen
p4908
(dp4909
g4
I0
sg5
I1
ssVhalten
p4910
(dp4911
g4
I1
sg5
I0
ssVpaar
p4912
(dp4913
g4
I0
sg5
I1
ssVangesichts
p4914
(dp4915
g4
I1
sg5
I1
ssVduterte
p4916
(dp4917
g4
I0
sg5
I1
ssVguatemala
p4918
(dp4919
g4
I0
sg5
I1
ssVfreebsd
p4920
(dp4921
g4
I1
sg5
I0
ssVatompolitik
p4922
(dp4923
g4
I0
sg5
I1
ssVllen
p4924
(dp4925
g4
I1
sg5
I1
ssVarmeef
p4926
(dp4927
g4
I0
sg5
I1
ssVbeobachtung
p4928
(dp4929
g4
I0
sg5
I1
ssVgauland
p4930
(dp4931
g4
I0
sg5
I3
ssVverlangen
p4932
(dp4933
g4
I1
sg5
I0
ssVgeschasst
p4934
(dp4935
g4
I0
sg5
I1
ssVinfizierten
p4936
(dp4937
g4
I1
sg5
I0
ssVmehrheit
p4938
(dp4939
g4
I2
sg5
I1
ssVpopulistischen
p4940
(dp4941
g4
I0
sg5
I1
ssVgrundrechtsabbau
p4942
(dp4943
g4
I1
sg5
I0
ssVausbruch
p4944
(dp4945
g4
I0
sg5
I1
ssVsparda
p4946
(dp4947
g4
I1
sg5
I0
ssVumgehen
p4948
(dp4949
g4
I1
sg5
I0
ssVexklusive
p4950
(dp4951
g4
I0
sg5
I1
ssVmenge
p4952
(dp4953
g4
I3
sg5
I0
ssVhoch
p4954
(dp4955
g4
I1
sg5
I1
ssVsartiger
p4956
(dp4957
g4
I1
sg5
I0
ssVhrdungen
p4958
(dp4959
g4
I1
sg5
I0
ssVspeziellen
p4960
(dp4961
g4
I1
sg5
I0
ssVschnellcheck
p4962
(dp4963
g4
I1
sg5
I0
ssVdatenhunger
p4964
(dp4965
g4
I1
sg5
I0
ssVtsv
p4966
(dp4967
g4
I0
sg5
I1
ssVdateisystem
p4968
(dp4969
g4
I1
sg5
I0
ssVpolitische
p4970
(dp4971
g4
I0
sg5
I1
ssVdaf
p4972
(dp4973
g4
I2
sg5
I4
ssVermitteln
p4974
(dp4975
g4
I1
sg5
I0
ssVanimationen
p4976
(dp4977
g4
I1
sg5
I0
ssVlieferung
p4978
(dp4979
g4
I1
sg5
I0
ssVgendatenbank
p4980
(dp4981
g4
I1
sg5
I0
ssVstaat
p4982
(dp4983
g4
I1
sg5
I1
ssVerrechnet
p4984
(dp4985
g4
I1
sg5
I0
ssVdan
p4986
(dp4987
g4
I0
sg5
I1
ssVtoshiba
p4988
(dp4989
g4
I1
sg5
I0
ssVzugeh
p4990
(dp4991
g4
I0
sg5
I1
ssVdoch
p4992
(dp4993
g4
I5
sg5
I12
ssVeingezogen
p4994
(dp4995
g4
I0
sg5
I1
ssVdar
p4996
(dp4997
g4
I1
sg5
I0
ssVdas
p4998
(dp4999
g4
I36
sg5
I34
ssVermittelt
p5000
(dp5001
g4
I1
sg5
I0
ssVlze
p5002
(dp5003
g4
I0
sg5
I1
ssVday
p5004
(dp5005
g4
I1
sg5
I0
ssVprozessor
p5006
(dp5007
g4
I2
sg5
I0
ssVbrowns
p5008
(dp5009
g4
I0
sg5
I1
ssVsin
p5010
(dp5011
g4
I0
sg5
I1
ssVberliner
p5012
(dp5013
g4
I0
sg5
I1
ssVpeking
p5014
(dp5015
g4
I0
sg5
I1
ssVberrascht
p5016
(dp5017
g4
I1
sg5
I1
ssVberechnung
p5018
(dp5019
g4
I1
sg5
I0
ssVguten
p5020
(dp5021
g4
I1
sg5
I0
ssVwandel
p5022
(dp5023
g4
I0
sg5
I1
ssVverabschiedet
p5024
(dp5025
g4
I1
sg5
I0
ssVwarten
p5026
(dp5027
g4
I2
sg5
I0
ssVprogrammen
p5028
(dp5029
g4
I2
sg5
I0
ssVhlt
p5030
(dp5031
g4
I4
sg5
I1
ssVhnliches
p5032
(dp5033
g4
I0
sg5
I1
ssVnutzerdaten
p5034
(dp5035
g4
I2
sg5
I0
ssVamerika
p5036
(dp5037
g4
I0
sg5
I1
ssVadly
p5038
(dp5039
g4
I0
sg5
I1
ssVherunterladen
p5040
(dp5041
g4
I1
sg5
I0
ssVliegen
p5042
(dp5043
g4
I2
sg5
I0
ssVsolchen
p5044
(dp5045
g4
I1
sg5
I0
ssVkritik
p5046
(dp5047
g4
I2
sg5
I3
ssVumgehend
p5048
(dp5049
g4
I0
sg5
I1
ssVrer
p5050
(dp5051
g4
I1
sg5
I1
ssVchaos
p5052
(dp5053
g4
I1
sg5
I1
ssVwerden
p5054
(dp5055
g4
I12
sg5
I14
ssVrei
p5056
(dp5057
g4
I0
sg5
I1
ssVren
p5058
(dp5059
g4
I4
sg5
I3
ssVdownloadcodes
p5060
(dp5061
g4
I1
sg5
I0
ssVrund
p5062
(dp5063
g4
I0
sg5
I1
ssVdualband
p5064
(dp5065
g4
I1
sg5
I0
ssVperfide
p5066
(dp5067
g4
I0
sg5
I1
ssVknobloch
p5068
(dp5069
g4
I0
sg5
I1
ssVragdoll
p5070
(dp5071
g4
I1
sg5
I0
ssVklima
p5072
(dp5073
g4
I0
sg5
I1
ssVvorlegen
p5074
(dp5075
g4
I0
sg5
I1
ssVhunderte
p5076
(dp5077
g4
I0
sg5
I1
ssVbotschafter
p5078
(dp5079
g4
I0
sg5
I3
ssVkaum
p5080
(dp5081
g4
I1
sg5
I0
ssVfranz
p5082
(dp5083
g4
I0
sg5
I2
ssVkompliziert
p5084
(dp5085
g4
I0
sg5
I1
ssVkauf
p5086
(dp5087
g4
I4
sg5
I1
ssVabgesichert
p5088
(dp5089
g4
I1
sg5
I0
ssVverlobungsring
p5090
(dp5091
g4
I1
sg5
I0
ssVschaffung
p5092
(dp5093
g4
I1
sg5
I0
ssVpolitikern
p5094
(dp5095
g4
I1
sg5
I0
ssVentgleisung
p5096
(dp5097
g4
I0
sg5
I1
ssVstarb
p5098
(dp5099
g4
I1
sg5
I0
ssVuneins
p5100
(dp5101
g4
I0
sg5
I1
ssVsicherheitsupdate
p5102
(dp5103
g4
I1
sg5
I0
ssVfreundschaft
p5104
(dp5105
g4
I0
sg5
I2
ssVlte
p5106
(dp5107
g4
I0
sg5
I2
ssVachtung
p5108
(dp5109
g4
I1
sg5
I0
ssVdeshalb
p5110
(dp5111
g4
I1
sg5
I0
ssVpassagiere
p5112
(dp5113
g4
I0
sg5
I1
ssVflensburg
p5114
(dp5115
g4
I0
sg5
I1
ssVkippen
p5116
(dp5117
g4
I0
sg5
I1
ssVgesagt
p5118
(dp5119
g4
I0
sg5
I1
ssVihr
p5120
(dp5121
g4
I4
sg5
I1
ssVvergangenen
p5122
(dp5123
g4
I1
sg5
I2
ssVbamf
p5124
(dp5125
g4
I0
sg5
I7
ssVgottesdienst
p5126
(dp5127
g4
I0
sg5
I1
ssVbundesrepublik
p5128
(dp5129
g4
I2
sg5
I0
ssVdamit
p5130
(dp5131
g4
I2
sg5
I5
ssVvergangener
p5132
(dp5133
g4
I1
sg5
I0
ssVbonner
p5134
(dp5135
g4
I1
sg5
I0
ssVbetrieben
p5136
(dp5137
g4
I0
sg5
I1
ssVungew
p5138
(dp5139
g4
I0
sg5
I2
ssVckkehrenden
p5140
(dp5141
g4
I0
sg5
I1
ssVdruckwellen
p5142
(dp5143
g4
I1
sg5
I0
ssVerkl
p5144
(dp5145
g4
I2
sg5
I2
ssVmanagement
p5146
(dp5147
g4
I2
sg5
I0
ssVschwierige
p5148
(dp5149
g4
I0
sg5
I2
ssVanzeigen
p5150
(dp5151
g4
I1
sg5
I0
ssVfestival
p5152
(dp5153
g4
I2
sg5
I0
ssVsystem
p5154
(dp5155
g4
I3
sg5
I0
ssVvertrag
p5156
(dp5157
g4
I1
sg5
I0
ssVfestplattensymbol
p5158
(dp5159
g4
I1
sg5
I0
ssVman
p5160
(dp5161
g4
I2
sg5
I4
ssVforscher
p5162
(dp5163
g4
I1
sg5
I0
ssVleuten
p5164
(dp5165
g4
I0
sg5
I1
ssVschwankt
p5166
(dp5167
g4
I0
sg5
I1
ssVmitmischen
p5168
(dp5169
g4
I1
sg5
I0
ssVjule
p5170
(dp5171
g4
I0
sg5
I1
ssVnur
p5172
(dp5173
g4
I10
sg5
I11
ssVbefristet
p5174
(dp5175
g4
I0
sg5
I2
ssVcomer
p5176
(dp5177
g4
I0
sg5
I1
ssVtherapietank
p5178
(dp5179
g4
I1
sg5
I0
ssVbewahrt
p5180
(dp5181
g4
I0
sg5
I1
ssVhannover
p5182
(dp5183
g4
I0
sg5
I1
ssVumfassenden
p5184
(dp5185
g4
I1
sg5
I0
ssVnstigen
p5186
(dp5187
g4
I1
sg5
I0
ssVmanipulation
p5188
(dp5189
g4
I1
sg5
I0
ssVbrachte
p5190
(dp5191
g4
I1
sg5
I0
ssVelite
p5192
(dp5193
g4
I1
sg5
I0
ssVfeind
p5194
(dp5195
g4
I0
sg5
I1
ssVipad
p5196
(dp5197
g4
I1
sg5
I0
ssVbek
p5198
(dp5199
g4
I0
sg5
I2
ssVbeh
p5200
(dp5201
g4
I3
sg5
I0
ssVbei
p5202
(dp5203
g4
I13
sg5
I16
ssVholland
p5204
(dp5205
g4
I1
sg5
I0
ssVbem
p5206
(dp5207
g4
I1
sg5
I0
ssVroulette
p5208
(dp5209
g4
I0
sg5
I1
ssValgerien
p5210
(dp5211
g4
I0
sg5
I1
ssVbefreiung
p5212
(dp5213
g4
I0
sg5
I1
ssVinvestoren
p5214
(dp5215
g4
I0
sg5
I1
ssVbez
p5216
(dp5217
g4
I0
sg5
I1
ssVtanzeinlage
p5218
(dp5219
g4
I0
sg5
I1
ssVber
p5220
(dp5221
g4
I18
sg5
I15
ssVerneuerbare
p5222
(dp5223
g4
I0
sg5
I1
ssVneugeborenes
p5224
(dp5225
g4
I0
sg5
I1
ssVwoche
p5226
(dp5227
g4
I0
sg5
I1
ssVsachgrundloser
p5228
(dp5229
g4
I0
sg5
I1
ssVjapanische
p5230
(dp5231
g4
I0
sg5
I1
ssVseinem
p5232
(dp5233
g4
I0
sg5
I2
ssVseinen
p5234
(dp5235
g4
I3
sg5
I5
ssVdiven
p5236
(dp5237
g4
I0
sg5
I1
ssVgutgeht
p5238
(dp5239
g4
I0
sg5
I1
ssVtatstaur
p5240
(dp5241
g4
I1
sg5
I0
ssVausweiten
p5242
(dp5243
g4
I0
sg5
I1
ssVanteil
p5244
(dp5245
g4
I0
sg5
I2
ssVkunst
p5246
(dp5247
g4
I1
sg5
I0
ssVseines
p5248
(dp5249
g4
I1
sg5
I1
ssVerwartete
p5250
(dp5251
g4
I1
sg5
I0
ssVverloren
p5252
(dp5253
g4
I1
sg5
I2
ssVempfehlenswert
p5254
(dp5255
g4
I0
sg5
I1
ssVexperten
p5256
(dp5257
g4
I2
sg5
I2
ssVgenannte
p5258
(dp5259
g4
I1
sg5
I0
ssVarm
p5260
(dp5261
g4
I3
sg5
I0
ssVrungen
p5262
(dp5263
g4
I2
sg5
I0
ssVsolle
p5264
(dp5265
g4
I2
sg5
I0
ssVmissachtung
p5266
(dp5267
g4
I1
sg5
I0
ssVsei
p5268
(dp5269
g4
I0
sg5
I3
ssVmelden
p5270
(dp5271
g4
I1
sg5
I0
ssVministerien
p5272
(dp5273
g4
I0
sg5
I1
ssVmit
p5274
(dp5275
g4
I37
sg5
I27
ssVrker
p5276
(dp5277
g4
I0
sg5
I1
ssVleistungsf
p5278
(dp5279
g4
I1
sg5
I0
ssVagenda
p5280
(dp5281
g4
I1
sg5
I0
ssVbernahme
p5282
(dp5283
g4
I0
sg5
I3
ssVregierungschef
p5284
(dp5285
g4
I0
sg5
I1
ssVtsplan
p5286
(dp5287
g4
I0
sg5
I1
ssVderweil
p5288
(dp5289
g4
I0
sg5
I1
ssVchipentwicklers
p5290
(dp5291
g4
I1
sg5
I0
ssVsentierte
p5292
(dp5293
g4
I1
sg5
I0
ssVrkei
p5294
(dp5295
g4
I0
sg5
I1
ssVrken
p5296
(dp5297
g4
I0
sg5
I3
ssVbauern
p5298
(dp5299
g4
I0
sg5
I1
ssVcke
p5300
(dp5301
g4
I1
sg5
I0
ssVconcorso
p5302
(dp5303
g4
I0
sg5
I1
ssVplattformen
p5304
(dp5305
g4
I1
sg5
I0
ssVwichtiges
p5306
(dp5307
g4
I2
sg5
I1
ssVwichtiger
p5308
(dp5309
g4
I1
sg5
I0
ssVthunderbird
p5310
(dp5311
g4
I3
sg5
I0
ssVgibt
p5312
(dp5313
g4
I9
sg5
I7
ssVakoya
p5314
(dp5315
g4
I1
sg5
I0
ssVbelastete
p5316
(dp5317
g4
I0
sg5
I1
ssVaktualisiert
p5318
(dp5319
g4
I2
sg5
I0
ssVfiel
p5320
(dp5321
g4
I0
sg5
I1
ssVdenn
p5322
(dp5323
g4
I1
sg5
I1
ssVwichtigen
p5324
(dp5325
g4
I1
sg5
I0
ssVgest
p5326
(dp5327
g4
I1
sg5
I1
ssVverantwortet
p5328
(dp5329
g4
I1
sg5
I0
ssVstehen
p5330
(dp5331
g4
I2
sg5
I0
ssVweiter
p5332
(dp5333
g4
I0
sg5
I2
ssVbiegen
p5334
(dp5335
g4
I1
sg5
I0
ssVkontrolle
p5336
(dp5337
g4
I2
sg5
I0
ssVvorsicht
p5338
(dp5339
g4
I0
sg5
I1
ssVtarif
p5340
(dp5341
g4
I1
sg5
I0
ssVflucht
p5342
(dp5343
g4
I1
sg5
I1
ssVchancen
p5344
(dp5345
g4
I1
sg5
I1
ssVbootsungl
p5346
(dp5347
g4
I0
sg5
I2
ssVeinmischen
p5348
(dp5349
g4
I0
sg5
I1
ssVgestellt
p5350
(dp5351
g4
I0
sg5
I1
ssVauflagen
p5352
(dp5353
g4
I1
sg5
I0
ssVtorwartfehler
p5354
(dp5355
g4
I0
sg5
I1
ssVnge
p5356
(dp5357
g4
I0
sg5
I2
ssVtunesien
p5358
(dp5359
g4
I0
sg5
I1
ssVnachrichten
p5360
(dp5361
g4
I0
sg5
I1
ssVvorstellen
p5362
(dp5363
g4
I0
sg5
I2
ssVbasieren
p5364
(dp5365
g4
I1
sg5
I0
ssVautomaten
p5366
(dp5367
g4
I1
sg5
I0
ssVjan
p5368
(dp5369
g4
I0
sg5
I1
ssVgartentrampoline
p5370
(dp5371
g4
I0
sg5
I1
ssVjackpot
p5372
(dp5373
g4
I1
sg5
I0
ssVparteichef
p5374
(dp5375
g4
I0
sg5
I1
ssVeinsatz
p5376
(dp5377
g4
I1
sg5
I0
ssVabsto
p5378
(dp5379
g4
I0
sg5
I1
ssVhandballer
p5380
(dp5381
g4
I0
sg5
I1
ssVmobilfunk
p5382
(dp5383
g4
I2
sg5
I0
ssVlucky
p5384
(dp5385
g4
I1
sg5
I0
ssVantipolitischen
p5386
(dp5387
g4
I0
sg5
I1
ssVnnern
p5388
(dp5389
g4
I0
sg5
I1
ssVwwdc
p5390
(dp5391
g4
I2
sg5
I1
ssVdavor
p5392
(dp5393
g4
I0
sg5
I1
ssVrger
p5394
(dp5395
g4
I1
sg5
I1
ssVmeter
p5396
(dp5397
g4
I0
sg5
I1
ssVetwa
p5398
(dp5399
g4
I3
sg5
I2
ssVschwachstelle
p5400
(dp5401
g4
I1
sg5
I0
ssVeinbinden
p5402
(dp5403
g4
I1
sg5
I0
ssVchips
p5404
(dp5405
g4
I1
sg5
I0
ssVzeigen
p5406
(dp5407
g4
I1
sg5
I2
ssVdeutschlandlied
p5408
(dp5409
g4
I0
sg5
I1
ssVviel
p5410
(dp5411
g4
I4
sg5
I3
ssVreis
p5412
(dp5413
g4
I0
sg5
I1
ssVklingbeil
p5414
(dp5415
g4
I0
sg5
I1
ssVganzen
p5416
(dp5417
g4
I1
sg5
I0
ssVnstige
p5418
(dp5419
g4
I1
sg5
I0
ssVstimmen
p5420
(dp5421
g4
I1
sg5
I1
ssVanlasslos
p5422
(dp5423
g4
I1
sg5
I0
ssVreiste
p5424
(dp5425
g4
I0
sg5
I1
ssVvier
p5426
(dp5427
g4
I1
sg5
I1
ssVgrad
p5428
(dp5429
g4
I1
sg5
I0
ssVaufgenommen
p5430
(dp5431
g4
I0
sg5
I1
ssVwichtig
p5432
(dp5433
g4
I2
sg5
I0
ssVertrunken
p5434
(dp5435
g4
I0
sg5
I1
ssVgefallen
p5436
(dp5437
g4
I0
sg5
I1
ssVsetzen
p5438
(dp5439
g4
I2
sg5
I0
ssVtorwart
p5440
(dp5441
g4
I0
sg5
I1
ssVflip
p5442
(dp5443
g4
I1
sg5
I0
ssVhilfe
p5444
(dp5445
g4
I2
sg5
I0
ssVcomputer
p5446
(dp5447
g4
I13
sg5
I0
ssVpacken
p5448
(dp5449
g4
I1
sg5
I0
ssVfreitag
p5450
(dp5451
g4
I1
sg5
I0
ssVsorgt
p5452
(dp5453
g4
I0
sg5
I1
ssVgleitkomma
p5454
(dp5455
g4
I1
sg5
I0
ssVwird
p5456
(dp5457
g4
I7
sg5
I11
ssVstatt
p5458
(dp5459
g4
I0
sg5
I1
ssVtalfahrt
p5460
(dp5461
g4
I1
sg5
I0
ssVreform
p5462
(dp5463
g4
I1
sg5
I1
ssVberschritten
p5464
(dp5465
g4
I1
sg5
I0
ssVmacron
p5466
(dp5467
g4
I0
sg5
I2
ssVberschreitet
p5468
(dp5469
g4
I0
sg5
I1
ssVstate
p5470
(dp5471
g4
I1
sg5
I0
ssVverschenken
p5472
(dp5473
g4
I1
sg5
I0
ssVapos
p5474
(dp5475
g4
I1
sg5
I0
ssVgemeinde
p5476
(dp5477
g4
I2
sg5
I0
ssVverhindern
p5478
(dp5479
g4
I1
sg5
I0
ssVwellen
p5480
(dp5481
g4
I1
sg5
I0
ssVkeynote
p5482
(dp5483
g4
I1
sg5
I0
ssVaufeinander
p5484
(dp5485
g4
I0
sg5
I2
ssVhrende
p5486
(dp5487
g4
I0
sg5
I1
ssVjanez
p5488
(dp5489
g4
I0
sg5
I1
ssVlohnt
p5490
(dp5491
g4
I2
sg5
I0
ssVautofans
p5492
(dp5493
g4
I0
sg5
I1
ssVende
p5494
(dp5495
g4
I1
sg5
I1
ssVscharapowa
p5496
(dp5497
g4
I0
sg5
I2
ssVendg
p5498
(dp5499
g4
I1
sg5
I5
ssVjahrelang
p5500
(dp5501
g4
I1
sg5
I0
ssVsparen
p5502
(dp5503
g4
I2
sg5
I0
ssVswift
p5504
(dp5505
g4
I1
sg5
I0
ssVproblem
p5506
(dp5507
g4
I0
sg5
I1
ssVbiohacking
p5508
(dp5509
g4
I1
sg5
I0
ssVhits
p5510
(dp5511
g4
I2
sg5
I0
ssVhause
p5512
(dp5513
g4
I0
sg5
I2
ssVhrige
p5514
(dp5515
g4
I0
sg5
I3
ssVkonservative
p5516
(dp5517
g4
I0
sg5
I3
ssVnetzwerks
p5518
(dp5519
g4
I1
sg5
I0
ssVufiges
p5520
(dp5521
g4
I0
sg5
I1
ssVprominente
p5522
(dp5523
g4
I0
sg5
I1
ssVvollen
p5524
(dp5525
g4
I1
sg5
I0
ssVsein
p5526
(dp5527
g4
I6
sg5
I8
ssVapril
p5528
(dp5529
g4
I3
sg5
I0
ssVasyl
p5530
(dp5531
g4
I0
sg5
I1
ssVtiere
p5532
(dp5533
g4
I0
sg5
I1
ssVtrumps
p5534
(dp5535
g4
I0
sg5
I3
ssVklang
p5536
(dp5537
g4
I1
sg5
I0
ssVschad
p5538
(dp5539
g4
I1
sg5
I0
ssVhrten
p5540
(dp5541
g4
I2
sg5
I0
ssVnetzwerke
p5542
(dp5543
g4
I1
sg5
I0
ssVaktuelle
p5544
(dp5545
g4
I3
sg5
I0
ssVnotebooks
p5546
(dp5547
g4
I3
sg5
I0
ssVbewilligen
p5548
(dp5549
g4
I1
sg5
I0
ssVkorruption
p5550
(dp5551
g4
I0
sg5
I3
ssVleipzig
p5552
(dp5553
g4
I1
sg5
I0
ssVzivilisation
p5554
(dp5555
g4
I0
sg5
I1
ssVverluste
p5556
(dp5557
g4
I0
sg5
I1
ssVgesuchten
p5558
(dp5559
g4
I1
sg5
I0
ssVchefentwickler
p5560
(dp5561
g4
I1
sg5
I0
ssVgebracht
p5562
(dp5563
g4
I0
sg5
I1
ssVberweisen
p5564
(dp5565
g4
I0
sg5
I1
ssVzuverl
p5566
(dp5567
g4
I1
sg5
I0
ssVratenkredite
p5568
(dp5569
g4
I1
sg5
I0
ssVimmense
p5570
(dp5571
g4
I1
sg5
I0
ssVwillk
p5572
(dp5573
g4
I0
sg5
I1
ssVgeneral
p5574
(dp5575
g4
I0
sg5
I1
ssVwurde
p5576
(dp5577
g4
I5
sg5
I1
ssVbesonderen
p5578
(dp5579
g4
I1
sg5
I0
ssVerdogan
p5580
(dp5581
g4
I0
sg5
I1
ssVlobt
p5582
(dp5583
g4
I0
sg5
I1
ssVhamburg
p5584
(dp5585
g4
I0
sg5
I3
ssVrahmen
p5586
(dp5587
g4
I1
sg5
I0
ssVngnis
p5588
(dp5589
g4
I0
sg5
I1
ssVins
p5590
(dp5591
g4
I0
sg5
I3
ssVkritikern
p5592
(dp5593
g4
I0
sg5
I1
ssValdis
p5594
(dp5595
g4
I1
sg5
I0
ssVmerkels
p5596
(dp5597
g4
I0
sg5
I1
ssVentziehen
p5598
(dp5599
g4
I0
sg5
I1
ssVmoyo
p5600
(dp5601
g4
I0
sg5
I1
ssVnorddeutschland
p5602
(dp5603
g4
I0
sg5
I1
ssVgrenzwerten
p5604
(dp5605
g4
I1
sg5
I0
ssVverbessern
p5606
(dp5607
g4
I0
sg5
I1
ssVasylplan
p5608
(dp5609
g4
I0
sg5
I2
ssVtungen
p5610
(dp5611
g4
I0
sg5
I1
ssVwill
p5612
(dp5613
g4
I6
sg5
I16
ssVinfiziert
p5614
(dp5615
g4
I2
sg5
I0
ssVerreichten
p5616
(dp5617
g4
I0
sg5
I1
ssVverbessert
p5618
(dp5619
g4
I1
sg5
I0
ssVgyptens
p5620
(dp5621
g4
I0
sg5
I1
ssVdienstle
p5622
(dp5623
g4
I1
sg5
I0
ssVfalsche
p5624
(dp5625
g4
I0
sg5
I1
ssVpatenten
p5626
(dp5627
g4
I1
sg5
I0
ssVbotschaft
p5628
(dp5629
g4
I0
sg5
I1
ssVverteilt
p5630
(dp5631
g4
I1
sg5
I0
ssVlinkedin
p5632
(dp5633
g4
I1
sg5
I0
ssVhardware
p5634
(dp5635
g4
I3
sg5
I0
ssVaufwendig
p5636
(dp5637
g4
I1
sg5
I0
ssVpartner
p5638
(dp5639
g4
I0
sg5
I1
ssVtzen
p5640
(dp5641
g4
I3
sg5
I0
ssVstarcraft
p5642
(dp5643
g4
I1
sg5
I0
ssVsowie
p5644
(dp5645
g4
I1
sg5
I1
ssVfamilientag
p5646
(dp5647
g4
I0
sg5
I1
ssVbefasst
p5648
(dp5649
g4
I1
sg5
I0
ssVzweifelhaften
p5650
(dp5651
g4
I0
sg5
I1
ssVflexiblen
p5652
(dp5653
g4
I1
sg5
I0
ssVakzeptiert
p5654
(dp5655
g4
I1
sg5
I0
ssVnschen
p5656
(dp5657
g4
I1
sg5
I0
ssVund
p5658
(dp5659
g4
I69
sg5
I60
ssVndigungen
p5660
(dp5661
g4
I0
sg5
I1
ssVempfehlung
p5662
(dp5663
g4
I2
sg5
I0
ssVrfen
p5664
(dp5665
g4
I1
sg5
I1
ssVkabel
p5666
(dp5667
g4
I2
sg5
I0
ssVball
p5668
(dp5669
g4
I0
sg5
I5
ssVrettet
p5670
(dp5671
g4
I0
sg5
I1
ssVbald
p5672
(dp5673
g4
I1
sg5
I0
ssVios
p5674
(dp5675
g4
I2
sg5
I0
ssVbersicht
p5676
(dp5677
g4
I0
sg5
I1
ssVsachgrundlose
p5678
(dp5679
g4
I0
sg5
I1
ssVrobotik
p5680
(dp5681
g4
I1
sg5
I0
ssVbetriebssystemen
p5682
(dp5683
g4
I1
sg5
I0
ssVbeteiligt
p5684
(dp5685
g4
I1
sg5
I0
ssVkostenlosen
p5686
(dp5687
g4
I1
sg5
I0
ssVdurchsichtigem
p5688
(dp5689
g4
I1
sg5
I0
ssVfluggesellschaft
p5690
(dp5691
g4
I0
sg5
I1
ssVaufhebung
p5692
(dp5693
g4
I1
sg5
I0
ssVslowenien
p5694
(dp5695
g4
I0
sg5
I2
ssVgedacht
p5696
(dp5697
g4
I1
sg5
I0
ssVdiscounter
p5698
(dp5699
g4
I1
sg5
I0
ssVwelt
p5700
(dp5701
g4
I1
sg5
I2
ssVaufgestellt
p5702
(dp5703
g4
I0
sg5
I1
ssVoft
p5704
(dp5705
g4
I2
sg5
I0
ssVschn
p5706
(dp5707
g4
I1
sg5
I0
ssVschl
p5708
(dp5709
g4
I0
sg5
I1
ssVcreators
p5710
(dp5711
g4
I2
sg5
I0
ssVverletzung
p5712
(dp5713
g4
I1
sg5
I0
ssVspricht
p5714
(dp5715
g4
I0
sg5
I2
ssVsselt
p5716
(dp5717
g4
I1
sg5
I0
ssVmigrationsstopp
p5718
(dp5719
g4
I0
sg5
I1
ssVdimms
p5720
(dp5721
g4
I1
sg5
I0
ssVgesammelt
p5722
(dp5723
g4
I1
sg5
I0
ssVbremen
p5724
(dp5725
g4
I0
sg5
I1
ssVllig
p5726
(dp5727
g4
I2
sg5
I0
ssVglichkeiten
p5728
(dp5729
g4
I1
sg5
I0
ssVentwickeln
p5730
(dp5731
g4
I1
sg5
I0
ssVsseln
p5732
(dp5733
g4
I1
sg5
I0
ssVgnis
p5734
(dp5735
g4
I0
sg5
I1
ssVboateng
p5736
(dp5737
g4
I0
sg5
I1
ssVweg
p5738
(dp5739
g4
I2
sg5
I1
ssVabzuschieben
p5740
(dp5741
g4
I0
sg5
I1
ssVprojekt
p5742
(dp5743
g4
I2
sg5
I0
ssVanzeige
p5744
(dp5745
g4
I1
sg5
I0
ssVwen
p5746
(dp5747
g4
I0
sg5
I1
ssVhandy
p5748
(dp5749
g4
I1
sg5
I0
ssVgleich
p5750
(dp5751
g4
I1
sg5
I1
ssVkunden
p5752
(dp5753
g4
I1
sg5
I1
ssVadd
p5754
(dp5755
g4
I1
sg5
I0
ssVnato
p5756
(dp5757
g4
I0
sg5
I1
ssVentwickelt
p5758
(dp5759
g4
I1
sg5
I0
ssVgute
p5760
(dp5761
g4
I1
sg5
I2
ssVmittelmeer
p5762
(dp5763
g4
I0
sg5
I2
ssVerntehelfer
p5764
(dp5765
g4
I0
sg5
I1
ssVmmern
p5766
(dp5767
g4
I1
sg5
I0
ssVcommunity
p5768
(dp5769
g4
I1
sg5
I0
ssVunscharfer
p5770
(dp5771
g4
I1
sg5
I0
ssVapriltag
p5772
(dp5773
g4
I1
sg5
I0
ssVdennoch
p5774
(dp5775
g4
I1
sg5
I0
ssVlindenau
p5776
(dp5777
g4
I0
sg5
I1
ssVvermutlich
p5778
(dp5779
g4
I1
sg5
I1
ssVsagen
p5780
(dp5781
g4
I0
sg5
I1
ssVmartin
p5782
(dp5783
g4
I1
sg5
I0
ssVideale
p5784
(dp5785
g4
I1
sg5
I0
ssVgenau
p5786
(dp5787
g4
I1
sg5
I0
ssVhandeln
p5788
(dp5789
g4
I0
sg5
I2
ssVtwitter
p5790
(dp5791
g4
I1
sg5
I1
ssVlinux
p5792
(dp5793
g4
I2
sg5
I0
ssVfuriosen
p5794
(dp5795
g4
I0
sg5
I1
ssVanalysiert
p5796
(dp5797
g4
I1
sg5
I0
ssVziele
p5798
(dp5799
g4
I1
sg5
I2
ssVbezieht
p5800
(dp5801
g4
I1
sg5
I0
ssVpeter
p5802
(dp5803
g4
I1
sg5
I1
ssVweltmeisterschaft
p5804
(dp5805
g4
I0
sg5
I4
ssVckgesetzt
p5806
(dp5807
g4
I1
sg5
I0
ssVkleinsten
p5808
(dp5809
g4
I0
sg5
I1
ssVzwei
p5810
(dp5811
g4
I3
sg5
I3
ssVleak
p5812
(dp5813
g4
I1
sg5
I0
ssVseparate
p5814
(dp5815
g4
I0
sg5
I1
ssVminer
p5816
(dp5817
g4
I2
sg5
I0
ssVkleinen
p5818
(dp5819
g4
I2
sg5
I1
ssVjoachim
p5820
(dp5821
g4
I0
sg5
I3
ssVhriger
p5822
(dp5823
g4
I0
sg5
I1
ssVleap
p5824
(dp5825
g4
I1
sg5
I0
ssVhitler
p5826
(dp5827
g4
I0
sg5
I1
ssVnordosten
p5828
(dp5829
g4
I0
sg5
I1
ssVckkehrern
p5830
(dp5831
g4
I0
sg5
I2
ssVkleinredet
p5832
(dp5833
g4
I0
sg5
I1
ssVkryptogeldminer
p5834
(dp5835
g4
I1
sg5
I0
ssVseien
p5836
(dp5837
g4
I0
sg5
I2
ssVmaschinerie
p5838
(dp5839
g4
I1
sg5
I0
ssVdahinter
p5840
(dp5841
g4
I1
sg5
I0
ssVmaher
p5842
(dp5843
g4
I1
sg5
I0
ssVfahrer
p5844
(dp5845
g4
I0
sg5
I1
ssVhandynutzern
p5846
(dp5847
g4
I1
sg5
I0
ssVdatenskandal
p5848
(dp5849
g4
I2
sg5
I0
ssVauswirkungen
p5850
(dp5851
g4
I1
sg5
I0
ssVklappt
p5852
(dp5853
g4
I1
sg5
I0
ssVoben
p5854
(dp5855
g4
I2
sg5
I0
ssVverein
p5856
(dp5857
g4
I0
sg5
I1
ssVroutern
p5858
(dp5859
g4
I1
sg5
I0
ssVgeldbeutel
p5860
(dp5861
g4
I1
sg5
I0
ssVmessechef
p5862
(dp5863
g4
I0
sg5
I1
ssVfahren
p5864
(dp5865
g4
I0
sg5
I1
ssVantrag
p5866
(dp5867
g4
I0
sg5
I1
ssVnordkorea
p5868
(dp5869
g4
I0
sg5
I5
ssVhandballvereins
p5870
(dp5871
g4
I0
sg5
I1
ssVabgreifen
p5872
(dp5873
g4
I1
sg5
I0
ssVltere
p5874
(dp5875
g4
I1
sg5
I0
ssVphilippinische
p5876
(dp5877
g4
I0
sg5
I1
ssVnde
p5878
(dp5879
g4
I1
sg5
I2
ssVchstes
p5880
(dp5881
g4
I0
sg5
I1
ssVdaran
p5882
(dp5883
g4
I1
sg5
I1
ssVchsten
p5884
(dp5885
g4
I0
sg5
I1
ssVhier
p5886
(dp5887
g4
I4
sg5
I1
ssVekstase
p5888
(dp5889
g4
I0
sg5
I1
ssVberfordert
p5890
(dp5891
g4
I0
sg5
I1
ssVopus
p5892
(dp5893
g4
I0
sg5
I1
ssVsoftware
p5894
(dp5895
g4
I8
sg5
I1
ssVchtlinge
p5896
(dp5897
g4
I0
sg5
I4
ssVeins
p5898
(dp5899
g4
I0
sg5
I2
ssVeint
p5900
(dp5901
g4
I1
sg5
I0
ssVgrafikkarten
p5902
(dp5903
g4
I2
sg5
I0
ssVhandelsstreit
p5904
(dp5905
g4
I0
sg5
I3
ssVbericht
p5906
(dp5907
g4
I0
sg5
I1
ssVbrust
p5908
(dp5909
g4
I1
sg5
I0
ssVwashington
p5910
(dp5911
g4
I1
sg5
I1
ssVkryptogelds
p5912
(dp5913
g4
I1
sg5
I0
ssVschenkt
p5914
(dp5915
g4
I0
sg5
I1
ssVeine
p5916
(dp5917
g4
I19
sg5
I29
ssVscharfe
p5918
(dp5919
g4
I0
sg5
I1
ssVhingelegt
p5920
(dp5921
g4
I0
sg5
I1
ssVgenanntes
p5922
(dp5923
g4
I1
sg5
I0
ssVnotfalls
p5924
(dp5925
g4
I0
sg5
I1
ssVgruppe
p5926
(dp5927
g4
I0
sg5
I1
ssVberraschend
p5928
(dp5929
g4
I0
sg5
I3
ssVvorgeworfen
p5930
(dp5931
g4
I0
sg5
I1
ssVunbegrenzten
p5932
(dp5933
g4
I1
sg5
I0
ssVapps
p5934
(dp5935
g4
I2
sg5
I0
ssVdatenschutzaufsicht
p5936
(dp5937
g4
I1
sg5
I0
ssVprogrammcodes
p5938
(dp5939
g4
I1
sg5
I0
ssVarbeitswelt
p5940
(dp5941
g4
I1
sg5
I0
ssVnotrufnummer
p5942
(dp5943
g4
I1
sg5
I0
ssVngjang
p5944
(dp5945
g4
I0
sg5
I1
ssVbeginnt
p5946
(dp5947
g4
I0
sg5
I2
ssVverantwortlich
p5948
(dp5949
g4
I0
sg5
I1
ssVbus
p5950
(dp5951
g4
I1
sg5
I0
ssVmutter
p5952
(dp5953
g4
I0
sg5
I2
ssVklick
p5954
(dp5955
g4
I1
sg5
I0
ssVflexible
p5956
(dp5957
g4
I1
sg5
I0
ssVoverflow
p5958
(dp5959
g4
I1
sg5
I0
ssVsqueeze
p5960
(dp5961
g4
I1
sg5
I0
ssVdatensammler
p5962
(dp5963
g4
I1
sg5
I0
ssVarbeitete
p5964
(dp5965
g4
I1
sg5
I0
ssVstaus
p5966
(dp5967
g4
I0
sg5
I1
ssVausbau
p5968
(dp5969
g4
I0
sg5
I1
ssVseit
p5970
(dp5971
g4
I9
sg5
I7
ssVmarkser
p5972
(dp5973
g4
I0
sg5
I1
ssValltag
p5974
(dp5975
g4
I1
sg5
I0
ssVrften
p5976
(dp5977
g4
I2
sg5
I0
ssVzufolge
p5978
(dp5979
g4
I2
sg5
I2
ssVmenschliche
p5980
(dp5981
g4
I1
sg5
I0
ssVfebruar
p5982
(dp5983
g4
I0
sg5
I1
ssVdistribution
p5984
(dp5985
g4
I1
sg5
I0
ssVweitergabe
p5986
(dp5987
g4
I1
sg5
I0
ssVherkunftsl
p5988
(dp5989
g4
I0
sg5
I1
ssVdisplay
p5990
(dp5991
g4
I2
sg5
I0
ssVflughafen
p5992
(dp5993
g4
I0
sg5
I5
ssVgesellschaft
p5994
(dp5995
g4
I2
sg5
I0
ssVbraucht
p5996
(dp5997
g4
I1
sg5
I0
ssVatomaren
p5998
(dp5999
g4
I1
sg5
I0
ssVinnerhalb
p6000
(dp6001
g4
I0
sg5
I1
ssVfanartikel
p6002
(dp6003
g4
I1
sg5
I0
ssVproblemen
p6004
(dp6005
g4
I0
sg5
I1
ssVbeats
p6006
(dp6007
g4
I0
sg5
I1
ssVversto
p6008
(dp6009
g4
I1
sg5
I0
ssVglicherweise
p6010
(dp6011
g4
I2
sg5
I0
ssVveralteter
p6012
(dp6013
g4
I1
sg5
I0
ssVpozzallo
p6014
(dp6015
g4
I0
sg5
I1
ssVahnenforschern
p6016
(dp6017
g4
I1
sg5
I0
ssVunbeeindruckt
p6018
(dp6019
g4
I0
sg5
I1
ssVcorporation
p6020
(dp6021
g4
I1
sg5
I0
ssVdetail
p6022
(dp6023
g4
I1
sg5
I0
ssVberlegenheit
p6024
(dp6025
g4
I0
sg5
I1
ssVsich
p6026
(dp6027
g4
I30
sg5
I33
ssVgeeint
p6028
(dp6029
g4
I0
sg5
I1
ssVorganisiert
p6030
(dp6031
g4
I0
sg5
I1
ssVauftritt
p6032
(dp6033
g4
I0
sg5
I1
ssVveralteten
p6034
(dp6035
g4
I1
sg5
I0
ssVjuni
p6036
(dp6037
g4
I1
sg5
I2
ssVbetrieb
p6038
(dp6039
g4
I1
sg5
I4
ssVstar
p6040
(dp6041
g4
I0
sg5
I1
ssVpolizei
p6042
(dp6043
g4
I2
sg5
I2
ssVprozent
p6044
(dp6045
g4
I2
sg5
I3
ssVjung
p6046
(dp6047
g4
I1
sg5
I0
ssVallein
p6048
(dp6049
g4
I0
sg5
I1
ssVsprache
p6050
(dp6051
g4
I1
sg5
I0
ssVspiele
p6052
(dp6053
g4
I4
sg5
I0
ssVgigen
p6054
(dp6055
g4
I1
sg5
I0
ssVphilips
p6056
(dp6057
g4
I1
sg5
I0
ssVhne
p6058
(dp6059
g4
I1
sg5
I2
ssVsamsung
p6060
(dp6061
g4
I4
sg5
I0
ssVsucht
p6062
(dp6063
g4
I0
sg5
I1
ssVhnt
p6064
(dp6065
g4
I0
sg5
I1
ssVdatenschutzgerecht
p6066
(dp6067
g4
I1
sg5
I0
ssVtrotzdem
p6068
(dp6069
g4
I2
sg5
I0
sssS'initprob'
p6070
F0.5
sb.